
C:/Users/BlueXer0/Desktop/WALUIGI-ASM/newcode.elf:     file format elf32-littlearm

SYMBOL TABLE:
02156aa0 l    d  .text	00000000 .text
00000000 l    d  .comment	00000000 .comment
00000000 l    d  .ARM.attributes	00000000 .ARM.attributes
00000000 l    df *ABS*	00000000 walljump.cpp
02156aa0 l       .text	00000000 repl_020c1dbc
02156b4c l     O .text	00000002 _ZZ18ShouldNotWallSlideE5angle
00000000 l    df *ABS*	00000000 JOSHPUNCHEAT.o
02156b0c l       .text	00000000 nsub_020DDEAC_ov_02
020ddedc l       *ABS*	00000000 *ABS*0x20ddedc
020ddeb8 l       *ABS*	00000000 *ABS*0x20ddeb8
00000000 l    df *ABS*	00000000 YoshiKillBoo.o
02156b44 l       .text	00000000 nsub_0211A144_ov_3F
0211a148 l       *ABS*	00000000 *ABS*0x211a148
02099ed4 g       *ABS*	00000000 _ZTV9ActorBase
020e04ec g       *ABS*	00000000 _ZN6Player12St_Land_MainEv
020137a8 g       *ABS*	00000000 CollectStar
0203c2a8 g       *ABS*	00000000 _ZN4Heap20RestoreFromTemporaryEv
0202cc0c g       *ABS*	00000000 _ZN5Stage13InitResourcesEv
02039620 g       *ABS*	00000000 _ZN16MeshColliderBase9Virtual08Ev
0203cb04 g       *ABS*	00000000 _ZN4Heap13SetupRootHeapEv
02049e0c g       *ABS*	00000000 _ZN8Particle7Manager9AddSystemEiR7Vector3
0209f354 g       *ABS*	00000000 VIEW_ARR_PTR
020d82cc g       *ABS*	00000000 _ZN6Player18St_DizzyStars_InitEv
020d1ea0 g       *ABS*	00000000 _ZN6Player17St_HoldLight_InitEv
02015e64 g       *ABS*	00000000 _ZN11ShadowModel9InitModelEP9Matrix4x35Fix12IiES3_S3_j
02110794 g       *ABS*	00000000 KS_PLAYER_FUNCTIONS
020551bc g       *ABS*	00000000 _ZN2G212GetBG0ScrPtrEv
0201ab38 g       *ABS*	00000000 _ZN7Message11PrepareTalkEv
0209fc5c g       *ABS*	00000000 IS_PLAYER_ACTIVE
02055eac g       *ABS*	00000000 _ZN3GXS19BeginLoadOBJExtPlttEv
0201e6bc g       *ABS*	00000000 _ZN7Message28DisplayStarNameForStarSelectEj
0203b990 g       *ABS*	00000000 RandomIntInternal
020aea24 g       *ABS*	00000000 _ZN5Enemy27DeathByInvincibleCharUnusedER12WithMeshClsn
0203c5bc g       *ABS*	00000000 _ZN9SolidHeap19VMaxAllocatableSizeEv
01ffd890 g       *ABS*	00000000 _ZN12MeshCollider17GetTriangleOriginEsR7Vector3
0211007c g       *ABS*	00000000 _ZN6Player18ST_SMALL_LAUNCH_UPE
02017bc4 g       *ABS*	00000000 _ZN13SharedFilePtr4LoadEv
0210c904 g       *ABS*	00000000 _ZN3OAM29MM_VS_BLUE_YOSHI_W_CAP_ICON_SE
02014818 g       *ABS*	00000000 _ZN19CylinderClsnWithPos10GetOwnerIDEv
0210c894 g       *ABS*	00000000 _ZN3OAM18MM_VS_PLAYER_ICONSE
02005fa0 g       *ABS*	00000000 _ZN8CapEnemy11GetCapStateEv
0209f2e0 g       *ABS*	00000000 SELECTED_BUTTON
020443c8 g       *ABS*	00000000 _ZN15ModelComponents6RenderEP9Matrix4x3P7Vector3
020cf714 g       *ABS*	00000000 _ZN6Player14St_OnWall_MainEv
020cc9c0 g       *ABS*	00000000 _ZN6Player23St_MetalWaterWater_MainEv
0203748c g       *ABS*	00000000 _ZN13RaycastGround12SetObjAndPosERK7Vector3P5Actor
02010138 g       *ABS*	00000000 _ZN5Actor8OnPushedERS_
0209f3a4 g       *ABS*	00000000 BOWSER_SPIKE_BOMBS
02075804 g       *ABS*	00000000 ACTOR_BANK_OVL_MAP
0200da04 g       *ABS*	00000000 _ZN6Camera6RenderEv
05000400 g       *ABS*	00000000 bgPaletteSub
020706b0 g       *ABS*	00000000 strcpy
02075720 g       *ABS*	00000000 VS_STAR_SPAWN_ORDERS
0203969c g       *ABS*	00000000 _ZN16MeshColliderBaseC2Ev
02056cc0 g       *ABS*	00000000 _ZN3IRQ13DmaTimHandlerEv
020dc48c g       *ABS*	00000000 _ZN6Player17St_SweepKick_MainEv
0202a6e4 g       *ABS*	00000000 NumRedCoins
020060f4 g       *ABS*	00000000 _ZN8CapEnemy16GetCapEatenOffItERK7Vector3
020585cc g       *ABS*	00000000 ARMSaveContext
02016a9c g       *ABS*	00000000 _ZN9ModelBase12ApplyOpacityEj
0209fd14 g       *ABS*	00000000 VS_MSG_FILE_PTR
0210da08 g       *ABS*	00000000 SILVER_NUMBER_TEXSEQ_PTR
020349e0 g       *ABS*	00000000 _ZN7Message10LoadTextVSEv
02013850 g       *ABS*	00000000 IsCannonOpen
02058bb0 g       *ABS*	00000000 _ZN4CP1514FlushDataCacheEv
0200f97c g       *ABS*	00000000 _ZN5Actor13SpawnSoundObjEj
020c6010 g       *ABS*	00000000 _ZN6Player15St_DeadHit_InitEv
020c9e5c g       *ABS*	00000000 _ZN6Player12Unk_020c9e5cEh
02059d08 g       *ABS*	00000000 _ZN3IRQ6EnableEv
04000028 g       *ABS*	00000000 reg_G2_BG2X
01ffb830 g       *ABS*	00000000 _ZN12MeshCollider10DetectClsnER10SphereClsn
0209f1d0 g       *ABS*	00000000 DAT_0209f1d0
0204e5c8 g       *ABS*	00000000 _ZN22ExpandingHeapAllocator16AllocateForwardsEjj
0203cc0c g       *ABS*	00000000 _Znaj
02018f38 g       *ABS*	00000000 SetSubBg3Offset
0210c8f4 g       *ABS*	00000000 _ZN3OAM28MM_VS_RED_YOSHI_L_CAP_ICON_SE
021101cc g       *ABS*	00000000 _ZN6Player9ST_THROWNE
0208e6cc g       *ABS*	00000000 _ZTV18MovingCylinderClsn
02034358 g       *ABS*	00000000 _ZN7Message18DisplayPauseTextVSEt
0206d9dc g       *ABS*	00000000 _ZN3IRQ11SetFIQStateEb
0203d744 g       *ABS*	00000000 _Z4Sqrty
02019574 g       *ABS*	00000000 GetSoundMode
020fe190 g       *ABS*	00000000 _ZN5Stage18LoadClsnAndObjectsER12LevelOverlayjR12MeshCollider
0209f224 g       *ABS*	00000000 STAR_OBTAINED_COPY
02086ef0 g       *ABS*	00000000 CAM_SPACE_CAM_POS_ASR_3
0204e3b4 g       *ABS*	00000000 _ZN13HeapAllocator7DestroyEv
0209f37c g       *ABS*	00000000 MINIMAP_ACTOR_TYPES
02056614 g       *ABS*	00000000 _ZN2GX7LoadOBJEPKvjj
0203adec g       *ABS*	00000000 _Z14ApproachLinearRsss
0202a814 g       *ABS*	00000000 GiveHealth
0210c4c8 g       *ABS*	00000000 _ZN3OAM14S_CAM_BUTTON_RE
02017814 g       *ABS*	00000000 _ZN15FaderBrightnessD1Ev
0208f3fc g       *ABS*	00000000 _ZTVN8Particle17CheckLavaCallbackE
020922a4 g       *ABS*	00000000 ACTOR_BANK_SETTINGS
020e6858 g       *ABS*	00000000 _ZN6PlayerD2Ev
0209f358 g       *ABS*	00000000 NUM_COINS
02054544 g       *ABS*	00000000 _ZN2GX13SetBankForTexEt
020d0ee0 g       *ABS*	00000000 _ZN6Player13St_Crawl_MainEv
02075d14 g       *ABS*	00000000 UTF16_TO_FONT_TABLE
020393dc g       *ABS*	00000000 _ZN16MeshColliderBase9IsEnabledEv
020dae6c g       *ABS*	00000000 _ZN6Player13St_Throw_MainEv
020e10d4 g       *ABS*	00000000 _ZN6Player15St_Spin_CleanupEv
0200f658 g       *ABS*	00000000 _ZN5Actor17DetectRaycastClsnER7Vector3S1_b
020c3f40 g       *ABS*	00000000 _ZN6Player15St_Respawn_MainEv
04000050 g       *ABS*	00000000 reg_GX_BLDCNT
0208e434 g       *ABS*	00000000 JRB_SOUND_SPECIFICS
020c524c g       *ABS*	00000000 _ZN6Player12GetTalkStateEv
02035750 g       *ABS*	00000000 _ZN12WithMeshClsn19ClearAllGroundFlagsEv
020ab8a8 g       *ABS*	00000000 _ZN3OAM20MM_WARIO_NO_CAP_ICONE
0201e314 g       *ABS*	00000000 _ZN7Message19DisplaySaveMenuTextEt
02011244 g       *ABS*	00000000 _ZN5Actor18AfterInitResourcesEj
0209f240 g       *ABS*	00000000 BACK_BUTTON_PRESSED_2
0210d9b8 g       *ABS*	00000000 COIN_YELLOW_POLY32_MODEL_PTR
04000060 g       *ABS*	00000000 reg_G3X_DISP3DCNT
020242c8 g       *ABS*	00000000 _ZN5Stage9LC_UpdateEv
0202c2ac g       *ABS*	00000000 _ZN5Stage10CheckInputEv
0209cefc g       *ABS*	00000000 commonModelDataArr
02022ee0 g       *ABS*	00000000 _ZN8Particle9RenderAllEv
020167c4 g       *ABS*	00000000 _ZN9ModelAnim9Virtual18EjPK7Vector3
0202de24 g       *ABS*	00000000 GetSoundGroupID
0209f2ac g       *ABS*	00000000 NEW_STAR_COLLECTED
0209cef0 g       *ABS*	00000000 DAT_0209cef0
020cc910 g       *ABS*	00000000 _ZN6Player17St_HurtWater_InitEv
020530cc g       *ABS*	00000000 _Z20HardwareDivResultQ12v
0209f29c g       *ABS*	00000000 BACK_BUTTON_PRESSED
0209f244 g       *ABS*	00000000 MENU_CHANGE_TIMER
02015d18 g       *ABS*	00000000 _ZN9AnimationC2Ev
02092134 g       *ABS*	00000000 STAR_CAMERA_SETTINGS
020d828c g       *ABS*	00000000 _ZN6Player18St_DizzyStars_MainEv
020d08b0 g       *ABS*	00000000 _ZN6Player17St_LedgeGrab_InitEv
0203acdc g       *ABS*	00000000 _ZNK7PathPtr7GetNodeER7Vector3j
0210c6d0 g       *ABS*	00000000 _ZN3OAM4TIMEE
02010ef0 g       *ABS*	00000000 _ZN5Actor15FindWithActorIDEjPS_
02110844 g       *ABS*	00000000 CHANGE_CAP_TOON_COLORS
02058c68 g       *ABS*	00000000 _ZN4CP1526InvalidateInstructionCacheEjj
0209f274 g       *ABS*	00000000 CAMERA_SAVED_LOOK_AT_RELATED
0210ca58 g       *ABS*	00000000 _ZN3OAM18VS_YELLOW_NUMBER_5E
02013768 g       *ABS*	00000000 _ZN8SaveData26CountStarsCollectedInLevelEj
020890a0 g       *ABS*	00000000 INTRO_CUTSCENE
0209d708 g       *ABS*	00000000 MSG_ARR_PTR
020224fc g       *ABS*	00000000 _ZN8Particle14SplashCallback8OnUpdateERNS_6SystemEb
0210c578 g       *ABS*	00000000 _ZN3OAM19MM_TRANSPARENT_STARE
0210c9a4 g       *ABS*	00000000 _ZN3OAM24MM_VS_YOSHI_M_CAP_ICON_SE
020e1a10 g       *ABS*	00000000 _ZN6Player16St_SideFlip_InitEv
02015ff8 g       *ABS*	00000000 _ZN11ShadowModelD1Ev
0205321c g       *ABS*	00000000 _Z14HardwareDivQ32ii
0210c710 g       *ABS*	00000000 _ZN3OAM8MM_ARROWE
02014620 g       *ABS*	00000000 nds_printt
020354bc g       *ABS*	00000000 _ZN4BgCh21StopDetectingOrdinaryEv
0200e768 g       *ABS*	00000000 ReadUnalignedShort
020cac28 g       *ABS*	00000000 _ZN6Player12St_Null_MainEv
0209f338 g       *ABS*	00000000 UNUSED_TYPE_13_OBJS_PTR
020e3a08 g       *ABS*	00000000 _ZN6Player6RenderEv
0201054c g       *ABS*	00000000 _ZN5Actor16JumpedOnByPlayerER12CylinderClsnR6Player
02037d18 g       *ABS*	00000000 _ZN10SphereClsnC1Ev
02018eb0 g       *ABS*	00000000 _ZN5Scene14GraphCallback1Ev
0200fe3c g       *ABS*	00000000 _ZN5Actor8PoofDustEv
0210ca38 g       *ABS*	00000000 _ZN3OAM18VS_YELLOW_NUMBER_9E
02042c3c g       *ABS*	00000000 _ZN8SaveData14SaveDataToCartEPcjj
020d736c g       *ABS*	00000000 _ZN6Player21St_YoshiPower_CleanupEv
0210d9a0 g       *ABS*	00000000 LUIGI_CAP_MODEL_PTR
0202a6ac g       *ABS*	00000000 CollectStarInCurLevel
0201786c g       *ABS*	00000000 _ZN5FaderD2Ev
020c3ed8 g       *ABS*	00000000 _ZN6Player21St_OpeningWakeUp_InitEv
0202adf4 g       *ABS*	00000000 StartMinigameMenu
0210caf4 g       *ABS*	00000000 _ZN3OAM13LC_HIGH_SCOREE
02043af0 g       *ABS*	00000000 _ZN9ActorBase6RenderEv
02020054 g       *ABS*	00000000 GetControllerMode
0209f220 g       *ABS*	00000000 STAR_ID
020cd94c g       *ABS*	00000000 _ZN6Player12St_Swim_MainEv
0205e91c g       *ABS*	00000000 ARMMathLoadState
0201507c g       *ABS*	00000000 _ZN12CylinderClsnD0Ev
0200fc0c g       *ABS*	00000000 _ZN5Actor11LandingDustEb
02016364 g       *ABS*	00000000 _ZN10ModelAnim2D1Ev
0201092c g       *ABS*	00000000 _ZNK5Actor18HorzAngleToFPlayerEv
0209f394 g       *ABS*	00000000 PLAYER_ARR
0203c50c g       *ABS*	00000000 _ZN13ExpandingHeap11VDeallocateEPv
02018c00 g       *ABS*	00000000 LoadOverlayInfo
0203d108 g       *ABS*	00000000 Vec3_AsrInPlace
01ffb0ec g       *ABS*	00000000 _ZNK12MeshCollider16GetOctreeOriginYEv
02035488 g       *ABS*	00000000 _ZN4BgCh18StopDetectingWaterEv
0204d57c g       *ABS*	00000000 _ZN8Particle10LimitPlane4FuncERNS_10EffectDataEPcR7Vector3
0210c6b8 g       *ABS*	00000000 _ZN3OAM8RED_COINE
02022bb4 g       *ABS*	00000000 _ZN8Particle6System17NewUnkCallback818Ejj5Fix12IiES2_S2_PK11Vector3_16f
020ee7cc g       *ABS*	00000000 _ZN8Platform19UpdateClsnPosAndRotEv
0202096c g       *ABS*	00000000 _ZN3OAM12GetObjHeightEii
020d5038 g       *ABS*	00000000 _ZN6Player16St_BurnLava_MainEv
02029854 g       *ABS*	00000000 UpdateMinimap
0205503c g       *ABS*	00000000 _ZN3G2S12GetBG2ScrPtrEv
02011f30 g       *ABS*	00000000 _ZN5Sound21ResetPlayerVoiceGroupEv
0210c728 g       *ABS*	00000000 _ZN3OAM25SMALL_ARROW_POINTING_LEFTE
0209b49c g       *ABS*	00000000 MESSAGE_SOUND_VOLUME_LSL_12
0208f3bc g       *ABS*	00000000 _ZTVN8Particle14SimpleCallbackE
0210c2c0 g       *ABS*	00000000 _ZTV3HUD
020178e4 g       *ABS*	00000000 _ZN13SharedFilePtr7LoadBTPEv
020bda98 g       *ABS*	00000000 _ZN6Player8HasNoCapEv
0203ab04 g       *ABS*	00000000 _ZN21ExtendingMeshCollider7SetFileEP8KCL_FileRK9Matrix4x35Fix12IiEsR10CLPS_Block
0202aa4c g       *ABS*	00000000 ShowArea
0203b89c g       *ABS*	00000000 _Z14ApproachLinearR7Vector3RKS_5Fix12IiE
0211001c g       *ABS*	00000000 _ZN6Player16ST_CEILING_GRATEE
02012af8 g       *ABS*	00000000 _ZN5Sound22StopLoadedMusic_Layer3Ev
020d5834 g       *ABS*	00000000 _ZN6Player19St_Electrocute_MainEv
0201686c g       *ABS*	00000000 _ZN9ModelAnim11UpdateVertsEv
0202a6c8 g       *ABS*	00000000 IsStarCollectedInCurLevel
020dc3e0 g       *ABS*	00000000 _ZN6Player17St_SlideKick_InitEv
0209f5bc g       *ABS*	00000000 SCENE_FADER
0210da00 g       *ABS*	00000000 COIN_BLUE_POLY4_MODEL_PTR
02056c90 g       *ABS*	00000000 _ZN3IRQ11Dma2HandlerEv
02132c50 g       *ABS*	00000000 BOWSER_KEY_MODEL_PTR
02022e68 g       *ABS*	00000000 _ZN8Particle6System12FromUniqueIDEj
020219f0 g       *ABS*	00000000 _ZN3OAM12EnableSubOAMEv
0206da28 g       *ABS*	00000000 _ZN3IRQ11SetIRQStateEb
0205e988 g       *ABS*	00000000 ARMMathSaveState
02011314 g       *ABS*	00000000 _ZN5ActorD0Ev
0202d690 g       *ABS*	00000000 _ZN5Stage14LoadGraphics2DEbi
021105ec g       *ABS*	00000000 _ZN6Player14ST_BOWSER_SPINE
020ad188 g       *ABS*	00000000 _ZN3OAM18STANDARD_MODE_TEXTE
02056c60 g       *ABS*	00000000 _ZN3IRQ19Tim1OverflowHandlerEv
02010130 g       *ABS*	00000000 _ZN5Actor15OnHitByMegaCharER6Player
0202af28 g       *ABS*	00000000 GetStarCameraSetting
02053200 g       *ABS*	00000000 _ZNH5Fix12IiE7InverseES0_
020dd26c g       *ABS*	00000000 _ZN6Player17LostGrabbedObjectEv
04000030 g       *ABS*	00000000 reg_G2_BG3PA
02012be0 g       *ABS*	00000000 _ZN5Sound7PlaySubEjjj5Fix12IiEb
0200f9e4 g       *ABS*	00000000 _ZN5Actor17TrackInDeathTableEv
0203c1c4 g       *ABS*	00000000 _ZN6Memory8AllocateEj
020a4bc8 g       *ABS*	00000000 VRAM_Tex4x4_TexelData_Start
02008550 g       *ABS*	00000000 _ZN6Camera26CallKuppaScriptInstructionEPcss
04000010 g       *ABS*	00000000 reg_G2_BG0OFS
02016a58 g       *ABS*	00000000 _ZN5Model12HideMaterialEii
020d38c0 g       *ABS*	00000000 _ZN6Player12St_Walk_MainEv
020a4b98 g       *ABS*	00000000 FIRST_RENDER_LIST_NODE
020177e8 g       *ABS*	00000000 _ZN15FaderBrightnessD0Ev
020c5e34 g       *ABS*	00000000 _ZN6Player15St_DeadHit_MainEv
02015950 g       *ABS*	00000000 _ZN18TextureTransformerC1Ev
02015ebc g       *ABS*	00000000 _ZN11ShadowModel12InitCylinderEv
0203ab68 g       *ABS*	00000000 _ZN21ExtendingMeshColliderD1Ev
020d19fc g       *ABS*	00000000 _ZN6Player20St_HoldLight_CleanupEv
0202a660 g       *ABS*	00000000 SetStarMarker
0201b5a8 g       *ABS*	00000000 _ZN7Message7AddCharEc
0202a93c g       *ABS*	00000000 _ZN5Stage11GetSkyboxIDEv
020ad04c g       *ABS*	00000000 _ZN3OAM21CONTROLLER_MODE_TEXTSE
0205a52c g       *ABS*	00000000 Copy32Bytes
0210c660 g       *ABS*	00000000 _ZN3OAM14HEALTH_METER_7E
02037670 g       *ABS*	00000000 _ZN11RaycastLine13SetObjAndLineERK7Vector3S2_P5Actor
02058bdc g       *ABS*	00000000 _ZN4CP1527FlushAndInvalidateDataCacheEv
02053770 g       *ABS*	00000000 CrossVec3
020a0ea0 g       *ABS*	00000000 _ZN6Memory14defaultHeapPtrE
02022418 g       *ABS*	00000000 _ZN8Particle22FitWaterSimpleCallback8OnUpdateERNS_6SystemEb
0202b164 g       *ABS*	00000000 _ZN5Stage22RenderModelTransparentEv
0210c7a4 g       *ABS*	00000000 _ZN3OAM29MM_VS_YELLOW_YOSHI_W_CAP_ICONE
0210d9c8 g       *ABS*	00000000 COIN_BLUE_POLY32_MODEL_PTR
0214876c g       *ABS*	00000000 OLD_WOOD_DOOR_MODEL_PTR
0204e964 g       *ABS*	00000000 _ZN18SolidHeapAllocator10ReallocateEPvj
027ffe60 g       *ABS*	00000000 ROMCTRL_SETTINGS
02043b24 g       *ABS*	00000000 _ZN9ActorBase8BehaviorEv
0209f2a0 g       *ABS*	00000000 PAUSED_DURING_TIMER
0205a490 g       *ABS*	00000000 CpuCopy32
0203cf40 g       *ABS*	00000000 Vec3_HorzDist
0204e180 g       *ABS*	00000000 _ZN22ExpandingHeapAllocator10MemoryLeftEv
0203c324 g       *ABS*	00000000 _ZN4Heap10SetDefaultEv
0210ca0c g       *ABS*	00000000 _ZN3OAM14VS_RED_NUMBERSE
02029ef8 g       *ABS*	00000000 _ZN5Stage19RenderVsModeNewStarEv
021186d8 g       *ABS*	00000000 _ZN9SpikeBomb7RecoverEv
02010ad8 g       *ABS*	00000000 _ZNK5Actor13ClosestPlayerEv
0204e014 g       *ABS*	00000000 _ZN18NestedHeapIterator19RecursiveFindNestedEPv
02014a34 g       *ABS*	00000000 _ZN25MovingCylinderClsnWithPosD0Ev
0209b3ec g       *ABS*	00000000 VIEW_MATRIX_ASR_3
020172d8 g       *ABS*	00000000 _ZN9FaderWipe11AdvanceFadeEv
02021e40 g       *ABS*	00000000 _ZN8Particle21CleanParticleCallback8OnUpdateERNS_6SystemEb
0208ee80 g       *ABS*	00000000 MSG_GEN_TEXT_FUNCS
04000014 g       *ABS*	00000000 reg_G2_BG1OFS
020fd7a4 g       *ABS*	00000000 _ZN3HUD8BehaviorEv
020ae844 g       *ABS*	00000000 _ZN5Enemy10KillByDiveER5Actor
020c976c g       *ABS*	00000000 _ZN6Player17St_NoControl_InitEv
02132894 g       *ABS*	00000000 KEY_MODEL_PTRS
02017450 g       *ABS*	00000000 _ZN9FaderWipeD1Ev
021105d4 g       *ABS*	00000000 _ZN6Player8ST_THROWE
02018ffc g       *ABS*	00000000 SetBg0Offset
02048ec4 g       *ABS*	00000000 _ZN5Sound13Func_02048ec4Ev
0208f42c g       *ABS*	00000000 _ZTVN8Particle12ClipCallbackE
0211031c g       *ABS*	00000000 _ZN6Player16ST_STOMACH_SLIDEE
0205427c g       *ABS*	00000000 _ZN2GX22SetBankForSubBGExtPlttEt
020ab838 g       *ABS*	00000000 _ZN3OAM20MM_MARIO_NO_CAP_ICONE
02013cd4 g       *ABS*	00000000 _ZN8SaveData13EraseSaveFileEjPc
020e13c0 g       *ABS*	00000000 _ZN6Player16St_BackFlip_MainEv
023c3ff8 g       *ABS*	00000000 _ZN3IRQ12IRQCheckBitsE
0209d6f0 g       *ABS*	00000000 CURR_MSG_PTR
0209f270 g       *ABS*	00000000 CHECKPOINT_STAR_ID
04000018 g       *ABS*	00000000 reg_G2_BG2OFS
0202af08 g       *ABS*	00000000 StartWithFarCamera
0210c924 g       *ABS*	00000000 _ZN3OAM31MM_VS_YELLOW_YOSHI_M_CAP_ICON_SE
02018ad0 g       *ABS*	00000000 FS_LoadOverlay
0203b14c g       *ABS*	00000000 Math_Function_0203b14c
0209caa0 g       *ABS*	00000000 SAVE_DATA
02110514 g       *ABS*	00000000 _ZN6Player8ST_CRAWLE
0209f234 g       *ABS*	00000000 SOUND_OPTION
0210da48 g       *ABS*	00000000 COIN_YELLOW_POLY4_MODEL_PTR
01ffb0d0 g       *ABS*	00000000 _ZNK12MeshCollider13GetUnkOctreeYEv
0210c5e8 g       *ABS*	00000000 _ZN3OAM14HEALTH_METER_4E
021105bc g       *ABS*	00000000 _ZN6Player7ST_DIVEE
02092124 g       *ABS*	00000000 LEVEL_OF_LAST_COLLECTED_STAR
02110094 g       *ABS*	00000000 _ZN6Player7ST_HURTE
020e67a8 g       *ABS*	00000000 _ZN6PlayerD0Ev
0210c598 g       *ABS*	00000000 _ZN3OAM26MM_TRANSPARENT_STAR_BRIGHTE
020fe960 g       *ABS*	00000000 _Z17LoadSimpleObjectsRN12LevelOverlay11ObjSubTableEij
0203565c g       *ABS*	00000000 _ZNK12WithMeshClsn13GetWallResultEv
02015988 g       *ABS*	00000000 _ZN15TextureSequence6UpdateER15ModelComponents
0210c418 g       *ABS*	00000000 _ZN3OAM25S_CAM_ZOOM_BUTTON_PRESSEDE
02005d94 g       *ABS*	00000000 _ZN8CapEnemy12Unk_02005d94Ev
0209d64c g       *ABS*	00000000 MSG_BOX_CURR_TOP_Y
0204d680 g       *ABS*	00000000 _ZN8Particle4Turn4FuncERNS_10EffectDataEPcR7Vector3
04000024 g       *ABS*	00000000 reg_G2_BG2PC
020301e8 g       *ABS*	00000000 Matrix3x3_FromQuaternion
02055f1c g       *ABS*	00000000 _ZN3GXS13LoadBGExtPlttEPKvjj
0210ca60 g       *ABS*	00000000 _ZN3OAM18VS_YELLOW_NUMBER_4E
0204349c g       *ABS*	00000000 _ZN9ActorBase9Virtual38Ejj
02017e0c g       *ABS*	00000000 _ZN13SharedFilePtr9FromOv0IDEj
020ee674 g       *ABS*	00000000 _ZN8Platform20UpdateKillByMegaCharEsss5Fix12IiE
02012328 g       *ABS*	00000000 _ZN5Sound8PlayLongEjjjRK7Vector3j
0204dcfc g       *ABS*	00000000 _ZN18NestedHeapIterator8PreviousEP13HeapAllocator
0200f9b8 g       *ABS*	00000000 _ZN5Actor24KillAndTrackInDeathTableEv
0210ca40 g       *ABS*	00000000 _ZN3OAM18VS_YELLOW_NUMBER_8E
0210d9a8 g       *ABS*	00000000 RED_NUMBER_MODEL_PTR
021310cc g       *ABS*	00000000 UnloadKeyModels
0202e348 g       *ABS*	00000000 _ZN5Scene14StartSceneFadeEjjt
020cb2f0 g       *ABS*	00000000 _ZN6Player17St_Headstand_InitEv
020fe154 g       *ABS*	00000000 _ZN3HUDC2Ev
0204e0e0 g       *ABS*	00000000 _ZN22ExpandingHeapAllocator9GetNodeIDEv
02021b58 g       *ABS*	00000000 _ZNK8Particle10SysTracker8Contents8FindDataEj
020ae4cc g       *ABS*	00000000 _ZN5Enemy11DeathByBurnER12WithMeshClsn
0201786c g       *ABS*	00000000 _ZN5FaderD1Ev
020160ac g       *ABS*	00000000 _ZN11CommonModel13Func_020160ACEj
020aed98 g       *ABS*	00000000 _ZN5EnemyC2Ev
0201a7dc g       *ABS*	00000000 GetSceneOverlayID
0201bbc8 g       *ABS*	00000000 _ZN7Message12UpdateWindowEv
020ddfdc g       *ABS*	00000000 _ZN6Player19St_TornadoSpin_MainEv
020921b8 g       *ABS*	00000000 _ZTV5Stage
0201ab04 g       *ABS*	00000000 _ZN7Message7EndTalkEv
0203ab8c g       *ABS*	00000000 _ZN21ExtendingMeshColliderC1Ev
02023688 g       *ABS*	00000000 _ZN5StageD2Ev
0210c9b4 g       *ABS*	00000000 _ZN3OAM20MM_VS_PLAYER_ICONS_SE
0203c280 g       *ABS*	00000000 _ZN4Heap11_DeallocateEPv
020159ac g       *ABS*	00000000 _ZN15TextureSequence7SetFileER8BTP_Filei5Fix12IiEj
0211028c g       *ABS*	00000000 _ZN6Player10ST_BALLOONE
020fc458 g       *ABS*	00000000 _ZN3HUD15RenderStarCountEv
020561f4 g       *ABS*	00000000 _ZN3GXS11LoadBG0CharEPKvjj
0200ccac g       *ABS*	00000000 _ZN6Camera6SetPosERK7Vector3
020e8ca0 g       *ABS*	00000000 _ZN9PowerStar13AddStarMarkerEv
020fe6c8 g       *ABS*	00000000 _Z19LoadEntranceObjectsRN12LevelOverlay11ObjSubTableEij
020ab908 g       *ABS*	00000000 _ZN3OAM19MM_YOSHI_M_CAP_ICONE
020dafd4 g       *ABS*	00000000 _ZN6Player13St_Throw_InitEv
02054308 g       *ABS*	00000000 _ZN2GX16SetBankForSubOBJEt
02045b58 g       *ABS*	00000000 _ZN5Model27LoadCompressedTextureToVramEPcjPc
0209f2cc g       *ABS*	00000000 BACKLIGHT_OPTION_TIMER
0210c6c8 g       *ABS*	00000000 _ZN3OAM7MINUTESE
020ff480 g       *ABS*	00000000 _ZN6Player9ANIM_PTRSE
0202a5ac g       *ABS*	00000000 GiveVsStars
0210c690 g       *ABS*	00000000 _ZN3OAM15HEALTH_METER_BGE
0400000a g       *ABS*	00000000 reg_G2_BG1CNT
020c3d1c g       *ABS*	00000000 _ZN6Player17St_EndingFly_MainEv
020148c8 g       *ABS*	00000000 _ZN25MovingCylinderClsnWithPos4InitEP5ActorRK7Vector35Fix12IiES6_jj
02014a60 g       *ABS*	00000000 _ZN25MovingCylinderClsnWithPosD1Ev
02022680 g       *ABS*	00000000 _ZN8Particle14SimpleCallbackC2Ev
02111184 g       *ABS*	00000000 DISPLAY_TIMER
0209f43c g       *ABS*	00000000 GLOBAL_CLIPPER
040004c8 g       *ABS*	00000000 GXPORT_LIGHT_VECTOR
020c4760 g       *ABS*	00000000 _ZN6Player15St_Talk_CleanupEv
020c568c g       *ABS*	00000000 _ZN6Player24St_BowserEarthquake_InitEv
020c52bc g       *ABS*	00000000 _ZN6Player21St_StuckInGround_MainEv
02017b64 g       *ABS*	00000000 _ZN13SharedFilePtr7ReleaseEv
0202af9c g       *ABS*	00000000 GetMinimapID
02017814 g       *ABS*	00000000 _ZN15FaderBrightnessD2Ev
02016bf8 g       *ABS*	00000000 _ZN5Model9DoSetFileER8BMD_Filebi
020dd9f8 g       *ABS*	00000000 _ZN6Player19St_GroundPound_MainEv
02148744 g       *ABS*	00000000 DOOR_OPEN_ANIM_PTR
0203c5f8 g       *ABS*	00000000 _ZN13ExpandingHeap22VMaxAllocationUnitSizeEv
0209f298 g       *ABS*	00000000 RETURN_TO_REC_ROOM
020569e0 g       *ABS*	00000000 _ZN2GX10EndLoadTexEv
02110394 g       *ABS*	00000000 _ZN6Player13ST_HOLD_HEAVYE
020fa690 g       *ABS*	00000000 _ZN7Minimap8BehaviorEv
02016104 g       *ABS*	00000000 _ZN11CommonModel6RenderEPK7Vector3
02025e74 g       *ABS*	00000000 _ZN5Stage17PS_UpdateSaveMenuEb
0211055c g       *ABS*	00000000 _ZN6Player12ST_LONG_JUMPE
020a0c80 g       *ABS*	00000000 ACTIVE_MESH_COLLIDERS
02029bd4 g       *ABS*	00000000 ExitLevel
020de45c g       *ABS*	00000000 _ZN6Player15St_Balloon_MainEv
02058c40 g       *ABS*	00000000 _ZN4CP1527FlushAndInvalidateDataCacheEjj
0204de0c g       *ABS*	00000000 _ZN18NestedHeapIterator8AddFirstEP13HeapAllocator
0211037c g       *ABS*	00000000 _ZN6Player7ST_BONKE
02012790 g       *ABS*	00000000 _ZN5Sound16UnkPlaySoundFuncEj
02089608 g       *ABS*	00000000 FALL_IN_FRONT_OF_CASTLE_CUTSCENE
02110274 g       *ABS*	00000000 _ZN6Player13ST_WIND_CARRYE
0214875c g       *ABS*	00000000 REGULAR_DOOR_MODEL_PTR
0208e7dc g       *ABS*	00000000 _ZTV9Animation
023c3ffc g       *ABS*	00000000 __irq_vector
020e127c g       *ABS*	00000000 _ZN6Player16St_LongJump_InitEv
0201d304 g       *ABS*	00000000 _ZN7Message25DisplayControllerModeTextEt
021100c4 g       *ABS*	00000000 _ZN6Player14ST_ELECTROCUTEE
0209f1f0 g       *ABS*	00000000 NEXT_STAR_ID
0203571c g       *ABS*	00000000 _ZNK12WithMeshClsn13JustHitGroundEv
0203a1dc g       *ABS*	00000000 _ZN18MovingMeshCollider9Virtual08Ev
02029934 g       *ABS*	00000000 FUN_02029934
020fd5dc g       *ABS*	00000000 _ZN3HUD16OnPendingDestroyEv
0209d650 g       *ABS*	00000000 MSG_BOX_MIN_LEFT_X
020e22c0 g       *ABS*	00000000 _ZN6Player12St_Jump_InitEv
0209e664 g       *ABS*	00000000 _ZN3OAM12objCountMainE
0202c830 g       *ABS*	00000000 _ZN3Fog4InitEt5Fix12IiES1_
020c54e8 g       *ABS*	00000000 _ZN6Player21St_StuckInGround_InitEv
02055bfc g       *ABS*	00000000 _ZN3G3i13PerspectiveW_E5Fix12IiES1_S1_S1_S1_S1_bP9Matrix4x3
0204ed54 g       *ABS*	00000000 _ZN18SolidHeapAllocatorC1EPvj
020be1e0 g       *ABS*	00000000 _ZN6Player16SetRealCharacterEj
0210ae30 g       *ABS*	00000000 _ZTV8Platform
020063b0 g       *ABS*	00000000 _ZN8CapEnemy6AddCapEj
02034954 g       *ABS*	00000000 LoadFont3D
0211118c g       *ABS*	00000000 NEXT_DEATH_TABLE_ID
0210c1b8 g       *ABS*	00000000 _ZTV7Minimap
020171a8 g       *ABS*	00000000 _ZThn80_N9AnimationD0Ev
0209f214 g       *ABS*	00000000 NUM_ENTRANCES
0210c944 g       *ABS*	00000000 _ZN3OAM28MM_VS_RED_YOSHI_W_CAP_ICON_SE
020d666c g       *ABS*	00000000 _ZN6Player15St_Swallow_InitEv
02131114 g       *ABS*	00000000 LoadKeyModels
02037024 g       *ABS*	00000000 _ZN12WithMeshClsn20UpdateDiscreteNoLavaEv
02016f9c g       *ABS*	00000000 _ZN5Model14LoadAndSetFileEtii
02035620 g       *ABS*	00000000 _ZNK12WithMeshClsn14GetResultFlag1Ev
0202acc0 g       *ABS*	00000000 LoadLevelNoReturn
02013e80 g       *ABS*	00000000 _ZN12ActorDerivedD2Ev
0208a178 g       *ABS*	00000000 font_2D_ncg_bin
020d9fc4 g       *ABS*	00000000 _ZN6Player22St_SwingPlayer_CleanupEv
02010498 g       *ABS*	00000000 _ZNK5Actor15IsPlayerInRangeE5Fix12IiES1_S1_i
0203549c g       *ABS*	00000000 _ZN4BgCh19StartDetectingWaterEv
02053850 g       *ABS*	00000000 SubVec3
0204eaf0 g       *ABS*	00000000 _ZN18SolidHeapAllocator10MemoryLeftEi
02024c70 g       *ABS*	00000000 _ZN5Stage16CheckCameraInputEv
020102b0 g       *ABS*	00000000 _ZN5Actor13SpawnFireballERK7Vector3PK10Vector3_165Fix12IiES7_j
0201689c g       *ABS*	00000000 _ZN9ModelAnimD2Ev
020ca708 g       *ABS*	00000000 _ZN6Player17PlayMammaMiaSoundEv
020d16bc g       *ABS*	00000000 _ZN6Player17St_HoldHeavy_MainEv
020221dc g       *ABS*	00000000 _ZN8Particle25EndingStarGlitterCallback8OnUpdateERNS_6SystemEb
04001050 g       *ABS*	00000000 reg_GXs_BLDCNT
02092138 g       *ABS*	00000000 STAR_CAP_MIN_POS_Y
020fb85c g       *ABS*	00000000 _ZN7Minimap15GetPosOnMinimapER7Vector3S1_5Fix12IiEsS1_
020dd9e0 g       *ABS*	00000000 _ZN6Player22St_GroundPound_CleanupEv
020dd2b0 g       *ABS*	00000000 _ZN6Player14IsFrontSlidingEv
0209f2c0 g       *ABS*	00000000 LEVEL_SPECIFIC_SETTING
02054e30 g       *ABS*	00000000 _ZN2G213GetBG2CharPtrEv
0209d6f4 g       *ABS*	00000000 CURR_MSG_TEXT_CHAR
020ca8f8 g       *ABS*	00000000 _ZN6Player12Unk_020ca8f8Ev
0203b4ac g       *ABS*	00000000 _ZN9ActorBase9SceneNode5ResetEv
02148764 g       *ABS*	00000000 DOOR_STAR_8_MODEL_PTR
020fb38c g       *ABS*	00000000 _ZN7Minimap13InitResourcesEv
020113c0 g       *ABS*	00000000 _ZN5ActorC1Ev
02029bf4 g       *ABS*	00000000 SetNextLevel
0209cddc g       *ABS*	00000000 SAVED_REGISTER_VALUES
0203aed8 g       *ABS*	00000000 _Z15ApproachLinear2Rsss
0210da38 g       *ABS*	00000000 BUBBLE_MODEL_PTR
0209f2fc g       *ABS*	00000000 PREV_RETURN_STATE
02113d20 g       *ABS*	00000000 _ZN6Bowser18CheckSpikeBombClsnEv
02010144 g       *ABS*	00000000 _ZN5Actor11OnAttacked1ERS_
0204e08c g       *ABS*	00000000 _ZN22ExpandingHeapAllocator13DeallocateAllEPFvPvPS_jEj
0209d660 g       *ABS*	00000000 PLAYER_TALKING
02052858 g       *ABS*	00000000 MulVec3Mat4x3
020a0d84 g       *ABS*	00000000 PATH_ARR_PTR
02017598 g       *ABS*	00000000 _ZN10FaderColorD0Ev
020a0ebc g       *ABS*	00000000 _ZN7Vector34ZEROE
02023194 g       *ABS*	00000000 _ZN8Particle10SysTrackerD1Ev
021101fc g       *ABS*	00000000 _ZN6Player21ST_SLIDE_KICK_RECOVERE
0203c538 g       *ABS*	00000000 _ZN4Heap10DeallocateEPv
02056924 g       *ABS*	00000000 _ZN2GX11LoadTexPlttEPKvjj
0202a8b0 g       *ABS*	00000000 SetControllerMode
020298a0 g       *ABS*	00000000 StartEntranceFaderWipe
0210cadc g       *ABS*	00000000 _ZN3OAM11MM_STAR_KEYE
0204e690 g       *ABS*	00000000 _ZN22ExpandingHeapAllocator12AllocateNodeEP10MemoryNodeS1_Pvjj
02056b9c g       *ABS*	00000000 _ZN2GX12BeginLoadTexEv
020daba0 g       *ABS*	00000000 _ZN6Player7TryGrabER5Actor
02017720 g       *ABS*	00000000 _ZN15FaderBrightness11AdvanceFadeEv
02055238 g       *ABS*	00000000 _ZN3G2x18SetBlendBrightnessEPVtts
0209e678 g       *ABS*	00000000 _ZN3OAM9bufferSubE
020e162c g       *ABS*	00000000 _ZN6Player17St_WaterJump_InitEv
02099380 g       *ABS*	00000000 _ZTV16MeshColliderBase
0200cb70 g       *ABS*	00000000 _ZN6Camera11ChangeStateEPNS_5StateE
02059d30 g       *ABS*	00000000 _ZN3IRQ7RestoreEj
0203c3f0 g       *ABS*	00000000 _ZN9SolidHeap10VSetNodeIDEj
0210d9e8 g       *ABS*	00000000 NUMBER_TEXSEQ_PTR
020c6f34 g       *ABS*	00000000 _ZN6Player21St_LevelEnter_CleanupEv
020a4b68 g       *ABS*	00000000 CURRENT_OBJECT_LIST_NODE
020abad8 g       *ABS*	00000000 _ZN3OAM4COINE
020161b4 g       *ABS*	00000000 _ZN11CommonModelD0Ev
0204dd28 g       *ABS*	00000000 _ZN18NestedHeapIterator6RemoveEP13HeapAllocator
020ae454 g       *ABS*	00000000 _ZN5Enemy13DeathByRegurgER12WithMeshClsn
020db0a4 g       *ABS*	00000000 _ZN6Player17St_Thrown_CleanupEv
01ffe684 g       *ABS*	00000000 __aeabi_uldivmod
0202a694 g       *ABS*	00000000 IsCannonOpenInCurLevel
0200fe9c g       *ABS*	00000000 LoadBlueCoinModel
02110af0 g       *ABS*	00000000 ENDLESS_STAIRS_FOG_AREA_ID
0203a4dc g       *ABS*	00000000 _ZN21ExtendingMeshCollider9GetNormalEsR7Vector3
020a4bcc g       *ABS*	00000000 VRAM_Pal_Start
0201d0f8 g       *ABS*	00000000 LoadControllerModeText
020ee55c g       *ABS*	00000000 _ZN8Platform4KillEv
02015d38 g       *ABS*	00000000 _ZN11ShadowModel9RenderAllEv
0202341c g       *ABS*	00000000 LoadDebugFont
0203929c g       *ABS*	00000000 _ZN16MeshColliderBase16UpdatePosAndAngsERS_P5ActorR10ClsnResultR7Vector3P10Vector3_16S8_
020e308c g       *ABS*	00000000 _ZN6Player9IsInStateERNS_5StateE
0209d684 g       *ABS*	00000000 MESSAGE_RESULT
0209f2b8 g       *ABS*	00000000 SAVE_MENU_TIMER
021100ac g       *ABS*	00000000 _ZN6Player13ST_HURT_WATERE
0209b270 g       *ABS*	00000000 KS_NUM_PLAYERS
02013c5c g       *ABS*	00000000 _ZN8SaveData18SetDefaultValuesMgEP16MinigameSaveData
020174e0 g       *ABS*	00000000 _ZN10FaderColor11AdvanceFadeEv
04000038 g       *ABS*	00000000 reg_G2_BG3X
02110634 g       *ABS*	00000000 _ZN6Player13ST_SLIDE_KICKE
02099fe4 g       *ABS*	00000000 _ZN3IRQ12IRQFunctionsE
0201392c g       *ABS*	00000000 _ZN8SaveData19IsCharacterUnlockedEj
0210c400 g       *ABS*	00000000 _ZN3OAM23CAM_ZOOM_BUTTON_PRESSEDE
02013984 g       *ABS*	00000000 _ZN8SaveData22NumGlowingRabbitsFoundEv
01ffd97c g       *ABS*	00000000 _ZN3IRQ20UserInterruptHandlerEv
020ce550 g       *ABS*	00000000 _ZN6Player12St_Swim_InitEv
02052551 g       *ABS*	00000000 Matrix3x3_SetRotationX
0205ba64 g       *ABS*	00000000 PXI_SetFifoRecvCallback
0200eedc g       *ABS*	00000000 StartIntroCutscene
02016f08 g       *ABS*	00000000 _ZN8BMD_File26AddToArrayAndLoadTexAndPalEv
0203cc0c g       *ABS*	00000000 malloc
02092128 g       *ABS*	00000000 NEXT_HAT_CHARACTER_ARR
0209f258 g       *ABS*	00000000 NUM_FOG_OBJS
020225a8 g       *ABS*	00000000 _ZN8Particle13ScaleCallback8OnUpdateERNS_6SystemEb
0200fdfc g       *ABS*	00000000 _ZN5Actor10PoofDustAtERK7Vector3
0203c558 g       *ABS*	00000000 _ZN9SolidHeap11VReallocateEPvj
02017afc g       *ABS*	00000000 _ZN13SharedFilePtr7LoadKCLEv
02012754 g       *ABS*	00000000 _ZN5Sound15PlayArchive2_2DEj
021102d4 g       *ABS*	00000000 _ZN6Player9ST_CANNONE
0210c3e8 g       *ABS*	00000000 _ZN3OAM15CAM_ZOOM_BUTTONE
02020994 g       *ABS*	00000000 _ZN3OAM6RenderEbP7OamAttriiii5Fix12IiES3_ii
0211114c g       *ABS*	00000000 INTRO_MINIMAP_ZOOMING
02016da8 g       *ABS*	00000000 _ZN5ModelC2Ev
0203c1e8 g       *ABS*	00000000 _ZN6Memory10DeallocateEPvP4Heap
0210c964 g       *ABS*	00000000 _ZN3OAM28MM_VS_RED_YOSHI_M_CAP_ICON_SE
0209d67c g       *ABS*	00000000 SAVE_MESSAGE_TIMER
020ae244 g       *ABS*	00000000 _ZN5Enemy24AngleAwayFromWallOrCliffER12WithMeshClsnRs
0201fcac g       *ABS*	00000000 _ZN7Message15ResetAllGlobalsEv
020aba70 g       *ABS*	00000000 _ZN3OAM7NUMBERSE
0204ec58 g       *ABS*	00000000 _ZN18SolidHeapAllocator17AllocateBackwardsEPvjj
020e1af8 g       *ABS*	00000000 _ZN6Player12St_Fall_MainEv
0203a1e0 g       *ABS*	00000000 _ZN18MovingMeshCollider7SetFileEP8KCL_FileRK9Matrix4x35Fix12IiEsR10CLPS_Block
02055e38 g       *ABS*	00000000 _ZN3GXS14LoadOBJExtPlttEPKvjj
0203ab68 g       *ABS*	00000000 _ZN21ExtendingMeshColliderD2Ev
0210c6f0 g       *ABS*	00000000 _ZN3OAM19ARROW_POINTING_LEFTE
020220a4 g       *ABS*	00000000 _ZN8Particle24CheckWaterRippleCallback8OnUpdateERNS_6SystemEb
01ffd8d8 g       *ABS*	00000000 _ZN12MeshCollider9GetNormalEsR7Vector3
02029b30 g       *ABS*	00000000 KillPlayer
020cc780 g       *ABS*	00000000 _ZN6Player13St_Shell_InitEv
02022640 g       *ABS*	00000000 _ZN8Particle14SimpleCallback14SpawnParticlesERNS_6SystemE
0201e12c g       *ABS*	00000000 _ZN7Message19DisplayDontSaveTextEt
0202c9a8 g       *ABS*	00000000 _ZN5Stage16CleanupResourcesEv
01ffdbd8 g       *ABS*	00000000 OSReadROMArea
0202b818 g       *ABS*	00000000 _ZN5Stage8CanPauseEv
020a4be8 g       *ABS*	00000000 VRAM_Tex4x4_MaxSize
0208e728 g       *ABS*	00000000 _ZTV7Clipper
02013818 g       *ABS*	00000000 IsCannonOpenInLevel
020a1158 g       *ABS*	00000000 INPUT_RELATED_ARR
0209f294 g       *ABS*	00000000 GAME_FROZEN
02010e2c g       *ABS*	00000000 _ZN5Actor5SpawnEjjRK7Vector3PK10Vector3_16ii
02025d20 g       *ABS*	00000000 _ZN5Stage25PS_UpdateOkAndBackButtonsEb
0208ee44 g       *ABS*	00000000 GAME_SPEED_RELATED
0203c2d8 g       *ABS*	00000000 _ZN4Heap28InitializeSolidHeapAsDefaultEjPS_i
020c5780 g       *ABS*	00000000 _ZN6Player15St_DeadPit_MainEv
0209b490 g       *ABS*	00000000 MUSIC_VOLUME_LSL_12
02010044 g       *ABS*	00000000 _ZN5Actor11SpawnNumberERK7Vector3jbtPS_
0209d454 g       *ABS*	00000000 BOTTOM_SCREEN_RELATED
0201582c g       *ABS*	00000000 _ZN15MaterialChangerD1Ev
0202e7d4 g       *ABS*	00000000 _ZN5Scene22ResetHardwareRegistersEv
02059d5c g       *ABS*	00000000 _ZN3IRQ10RestoreAllEj
0210cb4c g       *ABS*	00000000 _ZN3OAM8VS_PAUSEE
0210c764 g       *ABS*	00000000 _ZN3OAM21MM_VS_BLUE_YOSHI_ICONE
02010a08 g       *ABS*	00000000 _ZNK5Actor22ClosestNonVanishPlayerEv
020d092c g       *ABS*	00000000 _ZN6Player20St_LedgeHang_CleanupEv
020166d4 g       *ABS*	00000000 _ZN14BlendModelAnimC1Ev
02056d98 g       *ABS*	00000000 _ZN3IRQ11DisableIRQsEj
020d9b68 g       *ABS*	00000000 _ZN6Player12St_Hurt_InitEv
02039794 g       *ABS*	00000000 GetSteepnessClass
0208ecf4 g       *ABS*	00000000 ARCHIVE_INFOS
0210ca04 g       *ABS*	00000000 _ZN3OAM15VS_RED_NUMBER_3E
02035694 g       *ABS*	00000000 _ZNK12WithMeshClsn13GetLimMovFlagEv
0200ff14 g       *ABS*	00000000 _ZN5Actor19UntrackAndSpawnStarERajRK7Vector3j
02055574 g       *ABS*	00000000 _ZN3G3X13SetClearColorEtiiib
020d60b8 g       *ABS*	00000000 _ZN6Player20St_InYoshiMouth_MainEv
0209f21c g       *ABS*	00000000 NUM_PLAYERS
02052fa4 g       *ABS*	00000000 _Z16HardwareDivAsyncii
0203c3d8 g       *ABS*	00000000 _ZN9SolidHeap10VGetNodeIDEv
020fe6b8 g       *ABS*	00000000 _Z19LoadPathNodeObjectsRN12LevelOverlay11ObjSubTableEij
020ccccc g       *ABS*	00000000 _ZN6Player24St_MetalWaterGround_MainEv
0210a834 g       *ABS*	00000000 _ZTV6Player
020c69a0 g       *ABS*	00000000 _ZN6Player14St_Squish_InitEv
020ae9f8 g       *ABS*	00000000 _ZN5Enemy12KillBySquashER5Actor
0201367c g       *ABS*	00000000 NumStars
0210da10 g       *ABS*	00000000 WATER_RING_MODEL_PTR
02035708 g       *ABS*	00000000 _ZN12WithMeshClsn13SetGroundFlagEv
0209b294 g       *ABS*	00000000 GLOBAL_FADER
020ccc3c g       *ABS*	00000000 _ZN6Player23St_MetalWaterWater_InitEv
02017670 g       *ABS*	00000000 _ZN15FaderBrightness7IsAtEndEv
02005f0c g       *ABS*	00000000 _ZN8CapEnemy21DestroyIfCapNotNeededEv
0205519c g       *ABS*	00000000 _ZN3G2S12GetBG0ScrPtrEv
02010154 g       *ABS*	00000000 _ZN5Actor13OnTurnIntoEggER6Player
020136f8 g       *ABS*	00000000 IsStarCollectedInLevel
0200d890 g       *ABS*	00000000 _ZNK6Camera12IsUnderwaterEv
0203cbcc g       *ABS*	00000000 _ZN6Memory16operator_delete2EPv
02007098 g       *ABS*	00000000 _ZN6CameraD0Ev
0205a754 g       *ABS*	00000000 DecompressLZ16
02019740 g       *ABS*	00000000 Crash
020112c8 g       *ABS*	00000000 _ZN5ActorD1Ev
020fb8f8 g       *ABS*	00000000 _ZN3HUDD1Ev
0209f32c g       *ABS*	00000000 WATER_HEIGHT
020f9e94 g       *ABS*	00000000 _ZN7Minimap16OnPendingDestroyEv
020a0de8 g       *ABS*	00000000 TOUCH_INPUT_ARR
05000200 g       *ABS*	00000000 objPalette
020225d0 g       *ABS*	00000000 _ZN8Particle13ScaleCallback14SpawnParticlesERNS_6SystemE
02110694 g       *ABS*	00000000 _ZN6Player13ST_WATER_JUMPE
0204e938 g       *ABS*	00000000 _ZN10MemoryNode6TargetC1EP10MemoryNode
02012ee4 g       *ABS*	00000000 _ZN5Sound12UnpauseMusicEv
04000036 g       *ABS*	00000000 reg_G2_BG3PD
02035840 g       *ABS*	00000000 _ZN12WithMeshClsn19StartDetectingWaterEv
0210c718 g       *ABS*	00000000 _ZN3OAM9TINY_STARE
0201097c g       *ABS*	00000000 _ZNK5Actor23HorzAngleToCPlayerOrAngEv
0209f2a4 g       *ABS*	00000000 SELECTED_BUTTON_SMALL
02020414 g       *ABS*	00000000 IsPlayerWarping
02017120 g       *ABS*	00000000 _ZN9ModelBaseD1Ev
02056c40 g       *ABS*	00000000 _ZN3IRQ19Tim3OverflowHandlerEv
020deab8 g       *ABS*	00000000 _ZN6Player17St_WindCarry_MainEv
0205a160 g       *ABS*	00000000 DMASyncWordTransfer
0209f350 g       *ABS*	00000000 CAMERA_PRESS_STATE
020cd1e4 g       *ABS*	00000000 _ZN6Player26St_MetalWaterWater_CleanupEv
02016958 g       *ABS*	00000000 _ZN9ModelAnimC1Ev
02045d20 g       *ABS*	00000000 InitialiseVramGlobals
0202aa6c g       *ABS*	00000000 IsAreaShowing
0208f44c g       *ABS*	00000000 _ZTVN8Particle16FitWaterCallbackE
01ffabe4 g       *ABS*	00000000 _Z11SoftwareDivii
05000000 g       *ABS*	00000000 bgPalette
020e1020 g       *ABS*	00000000 _ZN6Player10SpinBounceE5Fix12IiE
020e69b8 g       *ABS*	00000000 _ZN6Player13OnYoshiTryEatEv
020fe6a4 g       *ABS*	00000000 _Z15LoadPathObjectsRN12LevelOverlay11ObjSubTableEij
02017480 g       *ABS*	00000000 _ZN9FaderWipeC2Ev
0203ad34 g       *ABS*	00000000 _ZNK7PathPtr5LoopsEv
0200cc5c g       *ABS*	00000000 _ZN6Camera25SaveCameraStateBeforeTalkEv
020758c8 g       *ABS*	00000000 LEVEL_OVL_MAP
02029ec4 g       *ABS*	00000000 _ZN5Event6SetBitEj
020458e0 g       *ABS*	00000000 _ZN5Model13LoadTexAndPalER8BMD_File
02029e0c g       *ABS*	00000000 DeathTable_SetBit
0202b0ac g       *ABS*	00000000 GetViewObj
06200000 g       *ABS*	00000000 bgTilesSub
0208ee64 g       *ABS*	00000000 POWERS_OF_TEN
021102a4 g       *ABS*	00000000 _ZN6Player11ST_TELEPORTE
0203816c g       *ABS*	00000000 _ZN10ClsnResult5ResetEv
020ae6a8 g       *ABS*	00000000 _ZN5Enemy11UpdateDeathER12WithMeshClsn
020cb15c g       *ABS*	00000000 _ZN6Player17St_Headstand_MainEv
0203982c g       *ABS*	00000000 _ZN12MeshColliderD0Ev
020377b0 g       *ABS*	00000000 _ZN11RaycastLineC1Ev
020a0eac g       *ABS*	00000000 _ZN6Memory11gameHeapPtrE
0203b0fc g       *ABS*	00000000 Math_Function_0203b0fc
02039348 g       *ABS*	00000000 _ZN16MeshColliderBase22UpdatePosWithTransformERS_P5ActorR10ClsnResultR7Vector3P10Vector3_16S8_
023ffdc4 g       *ABS*	00000000 _ZN6Memory11rootHeapEndE
02023a80 g       *ABS*	00000000 _ZN5Stage7VE_InitEv
0210c8ec g       *ABS*	00000000 _ZN3OAM22MM_VS_RED_YOSHI_ICON_SE
02110244 g       *ABS*	00000000 _ZN6Player6ST_OWLE
02043b2c g       *ABS*	00000000 _ZN9ActorBase21AfterCleanupResourcesEj
020994e0 g       *ABS*	00000000 ATAN_TABLE
04000000 g       *ABS*	00000000 reg_GX_DISPCNT
020d5750 g       *ABS*	00000000 _ZN6Player16St_BurnFire_InitEv
02017060 g       *ABS*	00000000 _ZN8BMD_File16ShrinkAllocationEv
0210c7d4 g       *ABS*	00000000 _ZN3OAM27MM_VS_BLUE_YOSHI_M_CAP_ICONE
023c4000 g       *ABS*	00000000 UNUSED_RAM
02099e70 g       *ABS*	00000000 NEXT_UNIQUE_ACTOR_ID
02054edc g       *ABS*	00000000 _ZN3G2S13GetBG0CharPtrEv
021103dc g       *ABS*	00000000 _ZN6Player12ST_WALL_JUMPE
02148754 g       *ABS*	00000000 HMC_STONE_DOOR_MODEL_PTR
0203c62c g       *ABS*	00000000 _ZN9SolidHeap7VRescueEv
020ca724 g       *ABS*	00000000 _ZN6Player24TryExitWhiteDoorWithStarEv
0209b460 g       *ABS*	00000000 POS_AT_SPAWN
021102ec g       *ABS*	00000000 _ZN6Player9ST_SQUISHE
020ae2b8 g       *ABS*	00000000 _ZN5Enemy15IsGoingOffCliffER12WithMeshClsn5Fix12IiEsbbS3_
0202aaec g       *ABS*	00000000 LoadLevel
020cc27c g       *ABS*	00000000 _ZN6Player13St_Shell_MainEv
020c2f3c g       *ABS*	00000000 _ZN6Player7IsInAirEv
020fb804 g       *ABS*	00000000 _ZN7Minimap20GetPosFromMinimapPosER7Vector3S1_5Fix12IiEsS1_
02055a64 g       *ABS*	00000000 _ZN3G3i7LookAt_EPK7Vector3S2_S2_bP9Matrix4x3
0210c6e0 g       *ABS*	00000000 _ZN3OAM5PAUSEE
020d32bc g       *ABS*	00000000 _ZN6Player12St_Wait_InitEv
0200fb84 g       *ABS*	00000000 _ZN5Actor16BigLandingDustAtER7Vector3b
0202e398 g       *ABS*	00000000 _ZN5Scene11AfterRenderEj
0208e438 g       *ABS*	00000000 SOUND_SPECIFICS
0202ddf4 g       *ABS*	00000000 IsLevelInsideCastle
020dedf0 g       *ABS*	00000000 _ZN6Player21St_JumpQuicksand_MainEv
0203d2fc g       *ABS*	00000000 Vec3_Sub
020d932c g       *ABS*	00000000 _ZN6Player6BounceE5Fix12IiE
02016fd4 g       *ABS*	00000000 _ZN9ModelBase7SetFileER8BMD_Filebi
0202b8a4 g       *ABS*	00000000 _ZN5Stage6RenderEv
02056c70 g       *ABS*	00000000 _ZN3IRQ19Tim0OverflowHandlerEv
0203cbf0 g       *ABS*	00000000 _ZdlPv
0400100a g       *ABS*	00000000 reg_G2S_DB_BG1CNT
0209f3c4 g       *ABS*	00000000 STAGE_SCENE_RELATED
02110af8 g       *ABS*	00000000 ENDLESS_STAIRS_FOG_PTR
0202b6f0 g       *ABS*	00000000 Geometry_WriteFogTable
02022e98 g       *ABS*	00000000 _ZN8Particle6System9NewSimpleEj5Fix12IiES2_S2_
02018aa4 g       *ABS*	00000000 InitFileSystem
0210c5f8 g       *ABS*	00000000 _ZN3OAM14HEALTH_METER_8E
020297f4 g       *ABS*	00000000 _ZN5Stage14GraphCallback2EP12SceneRelated
0210c914 g       *ABS*	00000000 _ZN3OAM31MM_VS_YELLOW_YOSHI_W_CAP_ICON_SE
02013c0c g       *ABS*	00000000 _ZN8SaveData16ReadMinigameDataEP16MinigameSaveData
02015788 g       *ABS*	00000000 _ZN15MaterialChanger6UpdateER15ModelComponents
0209fc4c g       *ABS*	00000000 SAVED_KUPPA_SCRIPT
020156dc g       *ABS*	00000000 _ZN7Clipper13Func_020156DCEv
02018028 g       *ABS*	00000000 LoadOverlay
0210c87c g       *ABS*	00000000 _ZN3OAM22MM_VS_YOSHI_M_CAP_ICONE
020156fc g       *ABS*	00000000 _ZN7ClipperD0Ev
020bd828 g       *ABS*	00000000 _ZN6Player8CanPauseEv
0202a7b8 g       *ABS*	00000000 GiveCoins
02092114 g       *ABS*	00000000 NEXT_HAT_CHARACTER
02017a8c g       *ABS*	00000000 _ZN13SharedFilePtr19ReallocateModelFileEv
020fe420 g       *ABS*	00000000 _Z15LoadExitObjectsRN12LevelOverlay11ObjSubTableEij
02015040 g       *ABS*	00000000 _ZN12CylinderClsn4InitE5Fix12IiES1_jj
0209f23c g       *ABS*	00000000 TIMER_0209f23c
0203c1b4 g       *ABS*	00000000 _ZN6Memory10DeallocateEPv
020e4d24 g       *ABS*	00000000 _ZN6Player8BehaviorEv
020d8228 g       *ABS*	00000000 _ZN6Player13InitFireYoshiEv
02029ab0 g       *ABS*	00000000 FUN_02029ab0
06400000 g       *ABS*	00000000 objTiles
020396d8 g       *ABS*	00000000 _ZN12MeshCollider9Virtual08Ev
02036318 g       *ABS*	00000000 _ZN12WithMeshClsn22UpdateContinuousNoLavaEv
02017574 g       *ABS*	00000000 _ZN10FaderColorD1Ev
02148734 g       *ABS*	00000000 BBH_HAUNTED_DOOR_MODEL_PTR
020e10ec g       *ABS*	00000000 _ZN6Player12St_Spin_MainEv
02025f60 g       *ABS*	00000000 _ZN5Stage20PS_UpdateOptionsMenuEv
02111178 g       *ABS*	00000000 LIFE_STAR_COUNTER_STATE
020da7f4 g       *ABS*	00000000 _ZN6Player9DropActorEv
020df208 g       *ABS*	00000000 _ZN6Player14St_Cannon_InitEv
0209f308 g       *ABS*	00000000 VS_NEW_STAR_TIMER
0209d6d0 g       *ABS*	00000000 MSG_BOX_CENTER_X
02038638 g       *ABS*	00000000 _ZN11RaycastLine10DetectClsnEv
02022d80 g       *ABS*	00000000 _ZN8Particle6System3NewEjj5Fix12IiES2_S2_PK11Vector3_16fPNS_8CallbackE
0209f33c g       *ABS*	00000000 CASTLE_KEY_RABBIT
02029dbc g       *ABS*	00000000 DeathTable_ClearBit
0209f304 g       *ABS*	00000000 VS_MODE_COUNTDOWN_TIMER
0204fadc g       *ABS*	00000000 _ZN5Sound6Player19SetPlayableSeqCountEii
02043dec g       *ABS*	00000000 _ZN9ActorBaseC2Ev
0210c700 g       *ABS*	00000000 _ZN3OAM20ARROW_POINTING_RIGHTE
020236f0 g       *ABS*	00000000 _ZN5StageD0Ev
0204d758 g       *ABS*	00000000 _ZN8Particle8Converge4FuncERNS_10EffectDataEPcR7Vector3
020ab850 g       *ABS*	00000000 _ZN3OAM13MM_LUIGI_ICONE
02082214 g       *ABS*	00000000 SINE_TABLE
020cd1e4 g       *ABS*	00000000 _ZN6Player27St_MetalWaterGround_CleanupEv
0208e978 g       *ABS*	00000000 _ZTV9ModelAnim
02017628 g       *ABS*	00000000 _ZN15FaderBrightness20IsBetweenStartAndEndEv
0203c9c0 g       *ABS*	00000000 _ZN13ExpandingHeapD0Ev
0400000e g       *ABS*	00000000 reg_G2_BG3CNT
0200f470 g       *ABS*	00000000 _Z13CopyToViewMatPK9Matrix4x3
020db3bc g       *ABS*	00000000 _ZN6Player15St_Grabbed_MainEv
020ee4b0 g       *ABS*	00000000 _ZN8Platform14KillByMegaCharER6Player
02039428 g       *ABS*	00000000 _ZN16MeshColliderBase14GetAngularVelYEv
020e30a0 g       *ABS*	00000000 _ZN6Player11ChangeStateERNS_5StateE
020339c0 g       *ABS*	00000000 _ZN7Message17DisplayVsExitTextEt
020ca8d0 g       *ABS*	00000000 _ZN6Player16St_DebugFly_InitEv
02035564 g       *ABS*	00000000 _ZNK12WithMeshClsn15ShouldUpdatePosEv
02029ee0 g       *ABS*	00000000 _ZN5Event6GetBitEj
0210ffec g       *ABS*	00000000 _ZN6Player13ST_LEDGE_HANGE
0209b498 g       *ABS*	00000000 _ZN6Memory24soundHeapAllocatorPtrPtrE
020109b8 g       *ABS*	00000000 _ZNK5Actor18HorzAngleToCPlayerEv
02016d20 g       *ABS*	00000000 _ZN5ModelD1Ev
02052914 g       *ABS*	00000000 MulMat4x3Mat4x3
0203d064 g       *ABS*	00000000 Vec3_Equal
020d4270 g       *ABS*	00000000 _ZN6Player12St_Walk_InitEv
02016c98 g       *ABS*	00000000 _ZN5Model11UpdateVertsEv
020c4efc g       *ABS*	00000000 _ZN6Player18HasFinishedTalkingEv
020214a4 g       *ABS*	00000000 _ZN3OAM6RenderEbP7OamAttriiiiP9Matrix2x2
020addc0 g       *ABS*	00000000 _ZN5Enemy27SpawnParticlesIfHitOtherObjER12CylinderClsn
0201493c g       *ABS*	00000000 _ZN18MovingCylinderClsn10GetOwnerIDEv
04000458 g       *ABS*	00000000 GXPORT_MTX_LOAD_4x4
02013be0 g       *ABS*	00000000 _ZN8SaveData13SaveMinigamesEP16MinigameSaveData
02016578 g       *ABS*	00000000 _ZN14BlendModelAnim11UpdateVertsEv
02015c0c g       *ABS*	00000000 _ZNK9Animation13GetFrameCountEv
0200ef04 g       *ABS*	00000000 RunKuppaScript
020fce9c g       *ABS*	00000000 _ZN3HUD13UpdateVsTimerEv
0209f22c g       *ABS*	00000000 PAUSE_MENU_TIMER
0209213c g       *ABS*	00000000 _ZN5Stage9spawnDataE
0203ca80 g       *ABS*	00000000 _ZN13ExpandingHeapC1EPvjP4HeapP22ExpandingHeapAllocator
0201366c g       *ABS*	00000000 _ZN8SaveData13GetCoinRecordEj
0202942c g       *ABS*	00000000 _ZN5Stage7PS_InitEv
020170b8 g       *ABS*	00000000 _ZN9ModelBaseD2Ev
0210ca18 g       *ABS*	00000000 _ZN3OAM7VS_TIMEE
0209b2f4 g       *ABS*	00000000 SELECTED_LINE
0211058c g       *ABS*	00000000 _ZN6Player13ST_ENDING_FLYE
0203c7a0 g       *ABS*	00000000 _ZN4Heap15CreateSolidHeapEjPS_i
0209cee8 g       *ABS*	00000000 _ZN12CylinderClsn4lastE
0202a130 g       *ABS*	00000000 FUN_0202a130
0200f9d4 g       *ABS*	00000000 _ZN5Actor19UntrackInDeathTableEv
04000020 g       *ABS*	00000000 reg_G2_BG2PA
0201cb7c g       *ABS*	00000000 _ZN5Stage13UpdateMessageEv
0203bf90 g       *ABS*	00000000 Matrix4x3_ApplyInPlaceToRotationZ
0203c70c g       *ABS*	00000000 _ZN9SolidHeap8VDestroyEv
0209f2f8 g       *ABS*	00000000 LEVEL_ID
020108c4 g       *ABS*	00000000 _ZNK5Actor22FindClosestWithActorIDEj
020de3b4 g       *ABS*	00000000 _ZN6Player18St_Balloon_CleanupEv
02099fd0 g       *ABS*	00000000 RENDER_DMA_CHANNEL
02039184 g       *ABS*	00000000 _ZN16MeshColliderBase6EnableEP5Actor
02016748 g       *ABS*	00000000 _ZN9ModelAnim7SetAnimER8BCA_Filei5Fix12IiEj
0200debc g       *ABS*	00000000 _ZN6Camera8BehaviorEv
0210c430 g       *ABS*	00000000 _ZN3OAM17S_CAM_ZOOM_BUTTONE
0202e3d4 g       *ABS*	00000000 _ZN5Scene14BeforeBehaviorEv
020a4b48 g       *ABS*	00000000 ACTOR_UNKNOWN12_ID
0201609c g       *ABS*	00000000 _ZN11CommonModel13Func_0201609CEj
02082128 g       *ABS*	00000000 _ZN9Matrix3x38IDENTITYE
0209f0d8 g       *ABS*	00000000 IMMUNE_TO_DAMAGE
02053b4c g       *ABS*	00000000 _ZN2GX6DispOnEv
0209f498 g       *ABS*	00000000 INPUT_ARR
0202c8f8 g       *ABS*	00000000 ResetInput
021105a4 g       *ABS*	00000000 _ZN6Player15ST_GROUND_POUNDE
021100f4 g       *ABS*	00000000 _ZN6Player12ST_BURN_LAVAE
02012590 g       *ABS*	00000000 _ZN5Sound4PlayEjjRK7Vector3
0209f31c g       *ABS*	00000000 FOG_OBJS_PTR
020d6474 g       *ABS*	00000000 _ZN6Player15St_Swallow_MainEv
020593a8 g       *ABS*	00000000 _ZN4CP1510EnableDTCMEv
02043c78 g       *ABS*	00000000 _ZN9ActorBase19BeforeInitResourcesEv
02037764 g       *ABS*	00000000 _ZN11RaycastLineD1Ev
020993d4 g       *ABS*	00000000 _ZTV12MeshCollider
020ab920 g       *ABS*	00000000 _ZN3OAM19MM_YOSHI_W_CAP_ICONE
0202de64 g       *ABS*	00000000 _Z19UnloadLevelOverlaysi
0201592c g       *ABS*	00000000 _ZN18TextureTransformerD1Ev
020ca5cc g       *ABS*	00000000 _ZN6Player12CanEnterDoorEh
0201691c g       *ABS*	00000000 _ZN9ModelAnimD1Ev
0205a448 g       *ABS*	00000000 CpuFill16
02056134 g       *ABS*	00000000 _ZN3GXS11LoadBG1CharEPKvjj
020230ec g       *ABS*	00000000 _ZN8Particle7Texture12AllocPalVramEjb
0209d6cc g       *ABS*	00000000 MSG_BOX_MIN_TOP_Y
0203c1d8 g       *ABS*	00000000 _ZN6Memory8AllocateEji
020158ac g       *ABS*	00000000 _ZN18TextureTransformer7SetFileER8BTA_Filei5Fix12IiEj
02015a98 g       *ABS*	00000000 _ZNK9Animation12WillHitFrameEi
02110574 g       *ABS*	00000000 _ZN6Player13ST_PUNCH_KICKE
02015730 g       *ABS*	00000000 _ZN7ClipperC1Ev
02056ca0 g       *ABS*	00000000 _ZN3IRQ11Dma1HandlerEv
020e0aa8 g       *ABS*	00000000 _ZN6Player21St_SmallLaunchUp_MainEv
020a60c4 g       *ABS*	00000000 _ZN3IRQ15DmaTimFunctionsE
0204ec10 g       *ABS*	00000000 _ZN18SolidHeapAllocator8ResetEndEv
0203ab3c g       *ABS*	00000000 _ZN21ExtendingMeshColliderD0Ev
02054384 g       *ABS*	00000000 _ZN2GX15SetBankForSubBGEt
04000130 g       *ABS*	00000000 reg_KEYINPUT
02056c80 g       *ABS*	00000000 _ZN3IRQ11Dma3HandlerEv
0203806c g       *ABS*	00000000 _ZNK10ClsnResult6CopyToERS_
0203816c g       *ABS*	00000000 _ZN10ClsnResultC1Ev
0201c0b8 g       *ABS*	00000000 _ZN7Message6UpdateEv
02037f4c g       *ABS*	00000000 _ZNK10ClsnResult9GetClsnIDEv
020298fc g       *ABS*	00000000 StartExitFaderWipe
020fb928 g       *ABS*	00000000 _ZN3HUDD0Ev
02055ed0 g       *ABS*	00000000 _ZN3GXS16EndLoadBGExtPlttEv
02010180 g       *ABS*	00000000 _ZN5Actor11UpdateCarryER6PlayerRK7Vector3
02014854 g       *ABS*	00000000 _ZN19CylinderClsnWithPosD1Ev
0200e444 g       *ABS*	00000000 _ZN6CameraC1Ev
02016a8c g       *ABS*	00000000 _ZN5Model14SetPolygonModeEi
01ffd920 g       *ABS*	00000000 _ZN12MeshCollider14GetSurfaceInfoEsR11SurfaceInfo
020fc3c4 g       *ABS*	00000000 _ZN3HUD17RenderSilverStarsEv
020ca78c g       *ABS*	00000000 _ZN6Player29TryExitCharacterDoorWithIntroEv
020162c4 g       *ABS*	00000000 _ZN10ModelAnim213Func_020162C4Eji5Fix12IiEt
0210d9f8 g       *ABS*	00000000 COIN_RED_POLY32_MODEL_PTR
020fd5e0 g       *ABS*	00000000 _ZN3HUD6RenderEv
0202b67c g       *ABS*	00000000 _ZN5Stage9RenderFogEv
020cc140 g       *ABS*	00000000 _ZN6Player9IsOnShellEv
0208f39c g       *ABS*	00000000 _ZTVN8Particle14BubbleCallbackE
02015ed8 g       *ABS*	00000000 _ZN11ShadowModel10InitCuboidEv
0210c75c g       *ABS*	00000000 _ZN3OAM23MM_VS_YELLOW_YOSHI_ICONE
0203ae58 g       *ABS*	00000000 _Z14ApproachLinearRiii
020dddf0 g       *ABS*	00000000 _ZN6Player19St_GroundPound_InitEv
0210cb14 g       *ABS*	00000000 _ZN3OAM18LC_CONGRATULATIONSE
0200f874 g       *ABS*	00000000 _ZN5Sound20PlaySmallSecretSoundEP5ActorPt
0209d4c8 g       *ABS*	00000000 TIME_TIMER
0214874c g       *ABS*	00000000 RUSTED_METAL_DOOR_MODEL_PTR
02022328 g       *ABS*	00000000 _ZN8Particle17CheckLavaCallback14SpawnParticlesERNS_6SystemE
0214877c g       *ABS*	00000000 DOOR_KEY_HOLE_MODEL_PTR
0209f208 g       *ABS*	00000000 NUM_VS_STARS_COLLECTED
020e088c g       *ABS*	00000000 _ZN6Player12St_Land_InitEv
02056ee4 g       *ABS*	00000000 _ZN3IRQ13GetIRQHandlerEj
0209f260 g       *ABS*	00000000 LEVEL_CLEAR_COIN_COUNT
0205a1b4 g       *ABS*	00000000 DMASyncFillTransfer
0210cae4 g       *ABS*	00000000 _ZN3OAM12MM_STAR_KEYSE
0203562c g       *ABS*	00000000 _ZNK12WithMeshClsn8IsOnWallEv
020593cc g       *ABS*	00000000 _ZN4CP159EnableMPUEv
02014828 g       *ABS*	00000000 _ZN19CylinderClsnWithPosD0Ev
0204e504 g       *ABS*	00000000 _ZN22ExpandingHeapAllocator17AllocateBackwardsEjj
0208f3cc g       *ABS*	00000000 _ZTVN8Particle25EndingStarGlitterCallbackE
0211004c g       *ABS*	00000000 _ZN6Player10ST_SWALLOWE
020cf398 g       *ABS*	00000000 _ZN6Player20St_CeilingGrate_MainEv
020356a0 g       *ABS*	00000000 _ZN12WithMeshClsn15ClearLimMovFlagEv
020109e4 g       *ABS*	00000000 _ZNK5Actor13DistToCPlayerEv
0209f348 g       *ABS*	00000000 MINIMAP_SCALE_OBJS_PTR
020235d4 g       *ABS*	00000000 _ZN9BootSceneD0Ev
02092130 g       *ABS*	00000000 LOADED_LEVEL_OVL_ID
02019604 g       *ABS*	00000000 _ZN5Timer10StartTimerEv
0203c33c g       *ABS*	00000000 _ZN9SolidHeap12VResizeToFitEv
0209d6d4 g       *ABS*	00000000 CURR_MSG_ID
02014948 g       *ABS*	00000000 _ZN18MovingCylinderClsn6GetPosEv
02053abc g       *ABS*	00000000 _ZN3GXS15SetGraphicsModeEi
0200e8d4 g       *ABS*	00000000 ProcessKuppaScript
0203adbc g       *ABS*	00000000 _Z15CountDownToZeroRt
0203bff0 g       *ABS*	00000000 Matrix4x3_ApplyInPlaceToRotationX
0203d224 g       *ABS*	00000000 Vec3_MulScalarInPlace
0203c3f8 g       *ABS*	00000000 _ZN13ExpandingHeap10VSetNodeIDEj
0203ad74 g       *ABS*	00000000 _ZN7PathPtrC1Ev
02010428 g       *ABS*	00000000 _ZN5Actor12ReflectAngleE5Fix12IiES1_s
0209f26c g       *ABS*	00000000 RETURN_STATE
0209f24c g       *ABS*	00000000 CHECKPOINT_ENTRANCE_ID
0209f320 g       *ABS*	00000000 LEVEL_MODEL_DATA
020bdf4c g       *ABS*	00000000 _ZN6Player15InitVanishLuigiEv
04000358 g       *ABS*	00000000 reg_G3X_FOG_COLOR
02092110 g       *ABS*	00000000 NEXT_LEVEL_ID
020a4bdc g       *ABS*	00000000 VRAM_Tex_End
0208f3dc g       *ABS*	00000000 _ZTVN8Particle14SplashCallbackE
021102bc g       *ABS*	00000000 _ZN6Player15ST_TORNADO_SPINE
0209f228 g       *ABS*	00000000 STAR_OBTAINED
0203bd28 g       *ABS*	00000000 Matrix4x3_FromRotationZ
0203cbf0 g       *ABS*	00000000 _ZdlPvj
020da438 g       *ABS*	00000000 _ZN6Player18St_BowserSpin_MainEv
0208ea94 g       *ABS*	00000000 _ZTV9FaderWipe
020f9e98 g       *ABS*	00000000 _ZN7Minimap6RenderEv
02010f6c g       *ABS*	00000000 _ZN5Actor11AfterRenderEj
020150cc g       *ABS*	00000000 _ZN12CylinderClsnC2Ev
02013d14 g       *ABS*	00000000 _ZN8SaveData8SaveFileEjP12FileSaveData
020d34bc g       *ABS*	00000000 _ZN6Player18St_TurnAround_MainEv
0209f210 g       *ABS*	00000000 ARROW_TIMER
0209b464 g       *ABS*	00000000 ACTOR_UPDATE_FLAGS
0203b4c4 g       *ABS*	00000000 _ZN9ActorBase9SceneNodeC1Ev
020103f4 g       *ABS*	00000000 _ZN5Actor14GetSubtractionEss
02148774 g       *ABS*	00000000 REGULAR_DOOR_1_MODEL_PTR
0204e40c g       *ABS*	00000000 _ZN22ExpandingHeapAllocator8FreeNodeEP10MemoryNodePNS0_6TargetE
02086f7c g       *ABS*	00000000 _ZTV6Camera
02055dec g       *ABS*	00000000 _ZN3GXS17EndLoadOBJExtPlttEv
0209b468 g       *ABS*	00000000 FIRST_ACTOR_LIST_NODE
021101e4 g       *ABS*	00000000 _ZN6Player12ST_SIDE_FLIPE
0202222c g       *ABS*	00000000 _ZN8Particle25EndingStarGlitterCallback14SpawnParticlesERNS_6SystemE
0203c2e4 g       *ABS*	00000000 _ZN4Heap23SetupSolidHeapAsDefaultEjPS_i
020d62f8 g       *ABS*	00000000 _ZN6Player20St_InYoshiMouth_InitEv
02015a7c g       *ABS*	00000000 _ZN9Animation4CopyERKS_
020c48e0 g       *ABS*	00000000 _ZN6Player12St_Talk_MainEv
02045394 g       *ABS*	00000000 _ZN15ModelComponents11UpdateBonesEP8BCA_Filei
0210da28 g       *ABS*	00000000 SILVER_NUMBER_MODEL_PTR
020c6f3c g       *ABS*	00000000 _ZN6Player18St_LevelEnter_MainEv
020c6dc4 g       *ABS*	00000000 _ZN6Player16St_Teleport_InitEv
0205a61c g       *ABS*	00000000 CpuCopy8
02056808 g       *ABS*	00000000 _ZN3GXS10LoadBGPlttEPKvjj
0202b07c g       *ABS*	00000000 GetTeleportDestObj
0210da58 g       *ABS*	00000000 FEATHER_MODEL_PTR
02004ffc g       *ABS*	00000000 DL_PTR_ARR_PTR
020e13c0 g       *ABS*	00000000 _ZN6Player17St_WaterJump_MainEv
0203589c g       *ABS*	00000000 _ZN12WithMeshClsn12Unk_0203589cEv
0210c78c g       *ABS*	00000000 _ZN3OAM27MM_VS_BLUE_YOSHI_W_CAP_ICONE
02043444 g       *ABS*	00000000 _ZN9ActorBasenwEj
02010168 g       *ABS*	00000000 _ZN5Actor10EarthquakeERK7Vector35Fix12IiE
0206cd44 g       *ABS*	00000000 AssertHandler
020fe33c g       *ABS*	00000000 _Z11LoadObjectsRN12LevelOverlay8ObjTableEij
0208e39c g       *ABS*	00000000 _ZTV5Actor
0209f284 g       *ABS*	00000000 BOUNCING_MSG_ARROWS_VISIBLE
02011220 g       *ABS*	00000000 _ZN5Actor22BeforeCleanupResourcesEv
020fe154 g       *ABS*	00000000 _ZN3HUDC1Ev
020a0d88 g       *ABS*	00000000 PATH_NODE_ARR_PTR
0200ccc8 g       *ABS*	00000000 _ZN6Camera9SetLookAtERK7Vector3
0204e8b0 g       *ABS*	00000000 _ZN22ExpandingHeapAllocator10CreateNodeEPN10MemoryNode6TargetEt
02015cc4 g       *ABS*	00000000 _ZN9AnimationD0Ev
0209f1ec g       *ABS*	00000000 NEXT_PAUSE_MENU_ID
0200d9d0 g       *ABS*	00000000 _ZN6Camera16CleanupResourcesEv
02013650 g       *ABS*	00000000 _ZN8SaveData21SetCoinRecordIfHigherEah
020dd17c g       *ABS*	00000000 _ZN6Player12St_Dive_InitEv
02018100 g       *ABS*	00000000 LoadCompressedFileAt
02015bcc g       *ABS*	00000000 _ZN9Animation8FinishedEv
0209b138 g       *ABS*	00000000 KS_CAMERA_FUNCTIONS
0203ca20 g       *ABS*	00000000 _ZN4HeapD0Ev
0208e6e4 g       *ABS*	00000000 _ZTV12CylinderClsn
020d0c54 g       *ABS*	00000000 _ZN6Player17St_LedgeHang_InitEv
020adb40 g       *ABS*	00000000 _ZN5Enemy22SpawnMegaCharParticlesER5ActorPc
02039a3c g       *ABS*	00000000 _ZN18MovingMeshCollider10DetectClsnER10SphereClsn
02018f8c g       *ABS*	00000000 SetSubBg0Offset
0210d9d0 g       *ABS*	00000000 POWER_FLOWER_CLOSED_MODEL_PTR
0202e6c8 g       *ABS*	00000000 _ZN5Scene20Initialise3dGraphicsEv
01ffabe4 g       *ABS*	00000000 __aeabi_idiv
020149f4 g       *ABS*	00000000 _ZN18MovingCylinderClsnC2Ev
0203c5ac g       *ABS*	00000000 _ZN13ExpandingHeap11VMemoryLeftEv
0210c720 g       *ABS*	00000000 _ZN3OAM26SMALL_ARROW_POINTING_RIGHTE
0201200c g       *ABS*	00000000 _ZN5Sound19LoadGroupAndSetBankEii
0203c74c g       *ABS*	00000000 _ZN4Heap8_DestroyEv
02045c60 g       *ABS*	00000000 _ZN5Model13GetVramOffsetEj
020149a4 g       *ABS*	00000000 _ZN18MovingCylinderClsnD1Ev
020a0d90 g       *ABS*	00000000 build_time_file
0209f2ec g       *ABS*	00000000 BACKLIGHT_OFF
020cbd34 g       *ABS*	00000000 _ZN6Player13St_Climb_InitEv
02035610 g       *ABS*	00000000 _ZNK12WithMeshClsn12TouchesWaterEv
01ff8000 g       *ABS*	00000000 __itcm_start
023ffda0 g       *ABS*	00000000 _ZN6Memory17nextRootHeapStartE
0208e6fc g       *ABS*	00000000 _ZTV25MovingCylinderClsnWithPos
020e16a4 g       *ABS*	00000000 _ZN6Player21St_HeadstandJump_InitEv
0200e780 g       *ABS*	00000000 ReadUnalignedUshort
020cb568 g       *ABS*	00000000 _ZN6Player20St_Headstand_CleanupEv
020396f0 g       *ABS*	00000000 _ZN12MeshCollider7SetFileEP8KCL_FileR10CLPS_Block
0200f9f4 g       *ABS*	00000000 _ZN5Actor18GetBitInDeathTableEv
0210c9fc g       *ABS*	00000000 _ZN3OAM15VS_RED_NUMBER_2E
02018fa8 g       *ABS*	00000000 SetBg3Offset
0203cae8 g       *ABS*	00000000 _ZN4Heap18InitializeRootHeapEv
0202e638 g       *ABS*	00000000 _ZN5Scene19BeforeInitResourcesEv
020df2c4 g       *ABS*	00000000 _ZN6Player22IsBeingShotOutOfCannonEv
0203aad8 g       *ABS*	00000000 _ZN21ExtendingMeshCollider9SetScaleYE5Fix12IiE
02013050 g       *ABS*	00000000 _ZN5Sound22StopLoadedMusic_Layer1Ej
020a0e58 g       *ABS*	00000000 BUTTON_INPUT_ARR
02013ad4 g       *ABS*	00000000 _ZN8SaveData13PlayerLoseCapEv
020567a0 g       *ABS*	00000000 _ZN2GX11LoadOBJPlttEPKvjj
02014878 g       *ABS*	00000000 _ZN19CylinderClsnWithPosC1Ev
02015f80 g       *ABS*	00000000 _ZN11ShadowModelD0Ev
0203c29c g       *ABS*	00000000 _ZN4Heap9_AllocateEji
02017450 g       *ABS*	00000000 _ZN9FaderWipeD2Ev
0202a608 g       *ABS*	00000000 ClearSpikeBomb
0209e668 g       *ABS*	00000000 _ZN3OAM16curAffineSetMainE
0203c6cc g       *ABS*	00000000 _ZN4Heap8AllocateEji
020a4bb8 g       *ABS*	00000000 ACTOR_SPAWN_INFO_TABLE_PTR
020ee464 g       *ABS*	00000000 _ZN8PlatformD0Ev
02056a50 g       *ABS*	00000000 _ZN2GX7LoadTexEPKvjj
020e17f8 g       *ABS*	00000000 _ZN6Player16St_WallJump_InitEv
020ee830 g       *ABS*	00000000 _ZN8Platform21UpdateModelPosAndRotYEv
0203d880 g       *ABS*	00000000 GetOwnerLanguage
0200651c g       *ABS*	00000000 _ZN8CapEnemyD2Ev
020d15e0 g       *ABS*	00000000 _ZN6Player14St_Crouch_InitEv
0209b41c g       *ABS*	00000000 INV_VIEW_MATRIX_ASR_3
0203c970 g       *ABS*	00000000 _ZN9SolidHeapD0Ev
020aedf4 g       *ABS*	00000000 _ZN8CapEnemyD0Ev
0200d184 g       *ABS*	00000000 _ZN6Camera10LookAtExitER5Actor
0202a628 g       *ABS*	00000000 AddSpikeBomb
0203c5d0 g       *ABS*	00000000 _ZN13ExpandingHeap19VMaxAllocatableSizeEv
020beecc g       *ABS*	00000000 _ZN6Player8IsInAnimEj
0209f27c g       *ABS*	00000000 BUZZER_SOUND_JUST_PLAYED
020ab800 g       *ABS*	00000000 _ZN3OAM13MM_MARIO_ICONE
0203566c g       *ABS*	00000000 _ZNK12WithMeshClsn14GetFloorResultEv
02039470 g       *ABS*	00000000 _ZN16MeshColliderBase10DetectClsnER10SphereClsn
0201470c g       *ABS*	00000000 nds_printf
02110544 g       *ABS*	00000000 _ZN6Player18ST_OPENING_WAKE_UPE
020ca150 g       *ABS*	00000000 _ZN6Player12Unk_020ca150Eh
0208e9ac g       *ABS*	00000000 _ZTV10ModelAnim2
02014820 g       *ABS*	00000000 _ZN19CylinderClsnWithPos6GetPosEv
02016bb8 g       *ABS*	00000000 _ZN5Model9Virtual10ER9Matrix4x3
0210d9f0 g       *ABS*	00000000 SNUFIT_BULLET_MODEL_PTR
020fe3e4 g       *ABS*	00000000 _Z23LoadUnusedType13ObjectsRN12LevelOverlay11ObjSubTableEij
0203c630 g       *ABS*	00000000 _ZN13ExpandingHeap7VRescueEv
021106c4 g       *ABS*	00000000 _ZN6Player20ST_METAL_WATER_WATERE
020ada40 g       *ABS*	00000000 _ZN5Enemy20KillByInvincibleCharERK10Vector3_16R6Player
020aea30 g       *ABS*	00000000 _ZN5Enemy12KillByAttackER5Actor
0204dd10 g       *ABS*	00000000 _ZN18NestedHeapIterator4NextEP13HeapAllocator
020ae73c g       *ABS*	00000000 _ZN5Enemy12KillByRegurgER5Actor
02035578 g       *ABS*	00000000 _ZNK12WithMeshClsn16ShouldUpdatePosYEv
0203c428 g       *ABS*	00000000 _ZN9SolidHeap7VSizeofEPKv
0201ce10 g       *ABS*	00000000 _ZN7Message21DisplaySaveStatusTextEt
020c65f8 g       *ABS*	00000000 _ZN6Player17St_Squish_CleanupEv
020a0e68 g       *ABS*	00000000 MATRIX_SCRATCH_PAPER
0209f334 g       *ABS*	00000000 MAP_TILE_ARR_PTR
0201a534 g       *ABS*	00000000 _ZN3IRQ13VBlankHandlerEv
020fe5cc g       *ABS*	00000000 _Z14LoadFogObjectsRN12LevelOverlay11ObjSubTableEij
01ffde50 g       *ABS*	00000000 DMAStartTransfer
02056c50 g       *ABS*	00000000 _ZN3IRQ19Tim2OverflowHandlerEv
0203968c g       *ABS*	00000000 _ZN16MeshColliderBaseD2Ev
0204ebc4 g       *ABS*	00000000 _ZN4Heap24CreateSolidHeapAllocatorEPvjj
02092118 g       *ABS*	00000000 CHECKPOINT_LEVEL_ID
02011374 g       *ABS*	00000000 _ZN5ActorD2Ev
0200f8f8 g       *ABS*	00000000 _ZN5Sound15PlaySecretSoundEP5ActorPt
020ae80c g       *ABS*	00000000 _ZN5Enemy10KillByUnk6ER5Actor
0209b45c g       *ABS*	00000000 ROT_AT_SPAWN
020ee870 g       *ABS*	00000000 _ZN8Platform13IsClsnInRangeE5Fix12IiES1_
02099488 g       *ABS*	00000000 _ZTV21ExtendingMeshCollider
0210cbf4 g       *ABS*	00000000 OBJ_TO_ACTOR_ID_TABLE_VANILLA
0209f264 g       *ABS*	00000000 LAST_ENTRANCE_ID
0203c4cc g       *ABS*	00000000 _ZN22ExpandingHeapAllocator16InvokeDeallocateEPvPS_j
0200705c g       *ABS*	00000000 _ZN6CameraD1Ev
0204ea3c g       *ABS*	00000000 _ZN18SolidHeapAllocator9LoadStateEj
0209f368 g       *ABS*	00000000 CAMERA_INPUT_ARR
0210c210 g       *ABS*	00000000 _ZN3HUD9spawnDataE
0209098c g       *ABS*	00000000 _Z20DLLoadAllUsedByLevelv
02058c24 g       *ABS*	00000000 _ZN4CP1514FlushDataCacheEjj
0200f558 g       *ABS*	00000000 Initialise3dGraphics
0209f2c4 g       *ABS*	00000000 GAME_PAUSED
02039930 g       *ABS*	00000000 _ZN18MovingMeshCollider12TransformPosERK7Vector3RS0_
0202b0fc g       *ABS*	00000000 _ZN5Stage10LoadSkyboxEv
0209d670 g       *ABS*	00000000 IS_MESSAGE_DISAPPEARING
02014244 g       *ABS*	00000000 ShowCrashScreen
0203bdf4 g       *ABS*	00000000 Matrix4x3_FromRotationZXYExt
0210c81c g       *ABS*	00000000 _ZN3OAM26MM_VS_RED_YOSHI_M_CAP_ICONE
02015cf8 g       *ABS*	00000000 _ZN9AnimationC1Ev
02156aa8 g     F .text	00000064 ShouldNotWallSlide
02004800 g       *ABS*	00000000 _start
02058c08 g       *ABS*	00000000 _ZN4CP1519InvalidateDataCacheEjj
0202e300 g       *ABS*	00000000 _ZN5Scene18PrepareToSpawnBootEv
0210c774 g       *ABS*	00000000 _ZN3OAM26MM_VS_RED_YOSHI_L_CAP_ICONE
020ef390 g       *ABS*	00000000 _ZN8PathLiftD2Ev
02110454 g       *ABS*	00000000 _ZN6Player7ST_SPINE
02037c00 g       *ABS*	00000000 _ZN10SphereClsn15SetObjAndSphereERK7Vector35Fix12IiEP5Actor
020bde14 g       *ABS*	00000000 _ZN6Player14InitMetalWarioEv
0201577c g       *ABS*	00000000 _ZN8BMD_File11PrepareAnimER8BMA_File
020468a0 g       *ABS*	00000000 _ZN8BTP_File12InitPointersEv
0210c6c0 g       *ABS*	00000000 _ZN3OAM7SECONDSE
02039908 g       *ABS*	00000000 _ZN18MovingMeshCollider11GetVelocityER7Vector3
020d2404 g       *ABS*	00000000 _ZN6Player12St_Wait_MainEv
020fe8ac g       *ABS*	00000000 _Z19LoadStandardObjectsRN12LevelOverlay11ObjSubTableEij
020e68f4 g       *ABS*	00000000 _ZN6PlayerC2Ev
0209f360 g       *ABS*	00000000 BG1_BUTTON_TILE_OFFSETS
0203b7ac g       *ABS*	00000000 Vec3_HorzAngle
02039864 g       *ABS*	00000000 _ZN12MeshColliderD2Ev
020bdc58 g       *ABS*	00000000 _ZN6Player16IncMegaKillCountEv
02054450 g       *ABS*	00000000 _ZN2GX17SetBankForTexPlttEt
0201816c g       *ABS*	00000000 LoadFile
02013714 g       *ABS*	00000000 CountStarsCollectedInLevelToDisplay
020100dc g       *ABS*	00000000 _ZN5Actor25OnAimedAtWithEggReturnVecEv
02038f44 g       *ABS*	00000000 _ZN13RaycastGround10DetectClsnEv
0203c578 g       *ABS*	00000000 _ZN4Heap10ReallocateEPvj
0209f1f4 g       *ABS*	00000000 VS_NEW_STAR_SOUND_PLAYED
02011fe8 g       *ABS*	00000000 _ZN5Sound21UnsetPlayerVoiceGroupEv
0204e0e8 g       *ABS*	00000000 _ZN22ExpandingHeapAllocator9SetNodeIDEj
020e558c g       *ABS*	00000000 _ZN6Player13InitResourcesEv
02015560 g       *ABS*	00000000 _ZN7Clipper13Func_02015560ER9Matrix4x3R7Vector35Fix12IiES3_
0203c210 g       *ABS*	00000000 _ZN6Memory8AllocateEjiP4Heap
020049f0 g       *ABS*	00000000 _ZN4CP1511SystemSetupEv
0210d210 g       *ABS*	00000000 _ZN3OAM15VS_GET_THE_STARE
0201012c g       *ABS*	00000000 _ZN5Actor19OnHitFromUnderneathERS_
020ca144 g       *ABS*	00000000 _ZN6Player11OpenBigDoorEv
02037534 g       *ABS*	00000000 _ZN13RaycastGroundD1Ev
02056e18 g       *ABS*	00000000 _ZN3IRQ7SetIRQsEj
020175c4 g       *ABS*	00000000 _ZN10FaderColorD2Ev
0210ca20 g       *ABS*	00000000 _ZN3OAM10VS_TIME_UPE
020fd218 g       *ABS*	00000000 _ZN3HUD17UpdateHealthMeterEv
0209fc9c g       *ABS*	00000000 CONNECTION_ERROR
04000032 g       *ABS*	00000000 reg_G2_BG3PB
0208e7ec g       *ABS*	00000000 _ZTV15MaterialChanger
02110724 g       *ABS*	00000000 _ZN6Player17ST_HEADSTAND_JUMPE
021104fc g       *ABS*	00000000 _ZN6Player10ST_RESPAWNE
020e6a08 g       *ABS*	00000000 Color_Interp
020fb96c g       *ABS*	00000000 _ZN3HUD15RenderTimeTimerEv
02038144 g       *ABS*	00000000 _ZN10ClsnResultD1Ev
02042804 g       *ABS*	00000000 _ZN8SaveData16ReadDataFromCartEPcjj
02010be8 g       *ABS*	00000000 _ZN5Actor19DropShadowRadHeightER11ShadowModelR9Matrix4x35Fix12IiES5_j
0203c390 g       *ABS*	00000000 _ZN4Heap11ResizeToFitEv
020ab808 g       *ABS*	00000000 _ZN3OAM19MM_MARIO_W_CAP_ICONE
02039668 g       *ABS*	00000000 _ZN16MeshColliderBaseD0Ev
0209f40c g       *ABS*	00000000 MINIMAP_STARS_AND_RED_COINS
0209d45c g       *ABS*	00000000 TOP_SCREEN_RELATED
0202b8a0 g       *ABS*	00000000 _ZN5Stage16OnPendingDestroyEv
020541f0 g       *ABS*	00000000 _ZN2GX23SetBankForSubOBJExtPlttEt
020a5bb8 g       *ABS*	00000000 _ZN5Sound8SDAT_RAM3PTRE
02019698 g       *ABS*	00000000 TurnBacklightOn
020c4088 g       *ABS*	00000000 _ZN6Player15St_Respawn_InitEv
0210ca80 g       *ABS*	00000000 _ZN3OAM18VS_YELLOW_NUMBER_0E
020e0fac g       *ABS*	00000000 _ZN6Player19St_CrazedCrate_InitEv
020dd240 g       *ABS*	00000000 _ZN6Player8IsDivingEv
0209f1f8 g       *ABS*	00000000 NUM_VIEWS
02010fc8 g       *ABS*	00000000 _ZN5Actor13AfterBehaviorEj
02018f70 g       *ABS*	00000000 SetSubBg1Offset
02006054 g       *ABS*	00000000 _ZN8CapEnemy15RespawnIfHasCapEv
0201a888 g       *ABS*	00000000 IsMinigameActorID
0204ea98 g       *ABS*	00000000 _ZN18SolidHeapAllocator9SaveStateEj
0204504c g       *ABS*	00000000 _ZN15ModelComponents21UpdateVertsUsingBonesEv
0202e62c g       *ABS*	00000000 _ZN5Scene18AfterInitResourcesEj
04000304 g       *ABS*	00000000 reg_GX_POWCNT
0210c160 g       *ABS*	00000000 _ZN7Minimap9spawnDataE
0200ff60 g       *ABS*	00000000 _ZN5Actor11UntrackStarERa
0203a470 g       *ABS*	00000000 _ZN18MovingMeshColliderD2Ev
02037570 g       *ABS*	00000000 _ZN13RaycastGroundC1Ev
020e2118 g       *ABS*	00000000 _ZN6Player12St_Jump_MainEv
020dd3c4 g       *ABS*	00000000 _ZN6Player17St_PunchKick_MainEv
020c59c0 g       *ABS*	00000000 _ZN6Player15St_DeadPit_InitEv
020f978c g       *ABS*	00000000 _ZN7MinimapD0Ev
020a4d30 g       *ABS*	00000000 PARTICLE_RNG_STATE
02111188 g       *ABS*	00000000 VS_MODE_TIMER_TIMER
0203d340 g       *ABS*	00000000 Vec3_Add
0203af90 g       *ABS*	00000000 UpdateAngle
02038018 g       *ABS*	00000000 _ZN10ClsnResultaSERKS_
02039140 g       *ABS*	00000000 _ZN16MeshColliderBase7DisableEv
020593ec g       *ABS*	00000000 _ZN4CP1514MPUDataRegion1Ej
020dc1d0 g       *ABS*	00000000 _ZN6Player17St_SlideKick_MainEv
02013910 g       *ABS*	00000000 _ZN8SaveData17SetCharacterIntroEi
0203c844 g       *ABS*	00000000 _ZN4Heap19CreateExpandingHeapEjPS_i
020378e4 g       *ABS*	00000000 _ZN10SphereClsn14SetFloorResultERK10ClsnResult
02037dcc g       *ABS*	00000000 _ZNK11SurfaceInfo12CopyNormalToER7Vector3
020251d0 g       *ABS*	00000000 _ZN5Stage9PS_RenderEv
0208f3ac g       *ABS*	00000000 _ZTVN8Particle8CallbackE
0210c630 g       *ABS*	00000000 _ZN3OAM14HEALTH_METER_5E
02006554 g       *ABS*	00000000 _ZN8CapEnemyC2Ev
02013834 g       *ABS*	00000000 OpenCannon
02013558 g       *ABS*	00000000 SublevelToLevel
0207063c g       *ABS*	00000000 strncpy
020cc7d0 g       *ABS*	00000000 _ZN6Player17St_HurtWater_MainEv
0205a548 g       *ABS*	00000000 Copy36Bytes
0202e3c8 g       *ABS*	00000000 _ZN5Scene13AfterBehaviorEj
0204e1e8 g       *ABS*	00000000 _ZN22ExpandingHeapAllocator10ReallocateEPvj
0203d0a0 g       *ABS*	00000000 Vec3_LslInPlace
0202a770 g       *ABS*	00000000 NumCoins
0200f450 g       *ABS*	00000000 SetNumPlayers
0203c9ec g       *ABS*	00000000 _ZN13ExpandingHeapD1Ev
02110364 g       *ABS*	00000000 _ZN6Player13ST_HOLD_LIGHTE
0203a494 g       *ABS*	00000000 _ZN18MovingMeshColliderC1Ev
02016320 g       *ABS*	00000000 _ZN10ModelAnim2D0Ev
0209e674 g       *ABS*	00000000 _ZN3OAM10bufferMainE
02010c5c g       *ABS*	00000000 _ZN5Actor28UpdatePosWithHorzSpeedAndAngEv
0209f314 g       *ABS*	00000000 AREAS
02039894 g       *ABS*	00000000 _ZN12MeshColliderC2Ev
0203c60c g       *ABS*	00000000 _ZN4Heap21MaxAllocationUnitSizeEv
0209212c g       *ABS*	00000000 STAR_CAP_MAX_POS_Y
020e71a8 g       *ABS*	00000000 LoadSilverStarAndNumber
020ca7f4 g       *ABS*	00000000 _ZN6Player16St_DebugFly_MainEv
020391f4 g       *ABS*	00000000 _ZN5Stage18ResetMeshCollidersEv
0210c7bc g       *ABS*	00000000 _ZN3OAM29MM_VS_YELLOW_YOSHI_M_CAP_ICONE
02023688 g       *ABS*	00000000 _ZN5StageD1Ev
02016254 g       *ABS*	00000000 _ZN10ModelAnim24CopyERKS_R8BCA_Filej
02030450 g       *ABS*	00000000 Quaternion_Normalize
02016998 g       *ABS*	00000000 _ZN9ModelAnimC2Ev
0202e170 g       *ABS*	00000000 _ZN5SceneD0Ev
02029d1c g       *ABS*	00000000 SetNextStar
0202a168 g       *ABS*	00000000 _ZN5Stage21RenderVsModeCountdownEv
0202ddc8 g       *ABS*	00000000 _ZN5Stage19BeforeInitResourcesEv
0203c49c g       *ABS*	00000000 _ZN9SolidHeap14VDeallocateAllEv
02015cb4 g       *ABS*	00000000 _ZN9AnimationD2Ev
02058618 g       *ABS*	00000000 ARMRestoreContext
0206daa4 g       *ABS*	00000000 _ZN4CP1517MPUGetDataRegion7Ev
020de2a0 g       *ABS*	00000000 _ZN6Player19St_TornadoSpin_InitEv
020e1990 g       *ABS*	00000000 _ZN6Player24St_SlideKickRecover_InitEv
020c4ec0 g       *ABS*	00000000 _ZN6Player11ShowMessageER9ActorBasejPK7Vector3jj
0211049c g       *ABS*	00000000 _ZN6Player17ST_WAIT_QUICKSANDE
020527c0 g       *ABS*	00000000 Matrix4x3_LoadIdentity
0202ad78 g       *ABS*	00000000 ExitMinigameMenu
020187f4 g       *ABS*	00000000 LoadTextNarcs
0202199c g       *ABS*	00000000 _ZN3OAM9RenderSubEP7OamAttriiii
020db368 g       *ABS*	00000000 _ZN6Player18St_Grabbed_CleanupEv
0210db80 g       *ABS*	00000000 ENEMY_KILL_FUNCS
0209fc48 g       *ABS*	00000000 RUNNING_KUPPA_SCRIPT
020c7ed4 g       *ABS*	00000000 _ZN6Player20IsStateEnteringLevelEv
0209f204 g       *ABS*	00000000 VS_TIME_UP
0209f2d4 g       *ABS*	00000000 LEVEL_CLEAR_SCREEN_STATE
02017610 g       *ABS*	00000000 _ZN15FaderBrightness10SetToStartEv
020db2e8 g       *ABS*	00000000 _ZN6Player14St_Thrown_InitEv
0201014c g       *ABS*	00000000 _ZN5Actor9Virtual50Ev
02010958 g       *ABS*	00000000 _ZNK5Actor14FarthestPlayerEv
020dcc28 g       *ABS*	00000000 _ZN6Player12St_Dive_MainEv
02019638 g       *ABS*	00000000 _ZN5Timer10ResetTimerEv
02018864 g       *ABS*	00000000 UnloadArchive
02023be0 g       *ABS*	00000000 _ZN5Stage20RenderBouncingArrowsEv
0208ee74 g       *ABS*	00000000 DIGIT_ENC_ARR
023c0000 g       *ABS*	00000000 __dtcm_start
0210c934 g       *ABS*	00000000 _ZN3OAM29MM_VS_BLUE_YOSHI_M_CAP_ICON_SE
02016204 g       *ABS*	00000000 _ZN11CommonModelC1Ev
020e0d28 g       *ABS*	00000000 _ZN6Player22St_CrazedCrate_CleanupEv
02022998 g       *ABS*	00000000 _ZN8Particle6System9NewRippleE5Fix12IiES2_S2_
01ffa9e8 g       *ABS*	00000000 __aeabi_ulmod
020d0e8c g       *ABS*	00000000 _ZN6Player17St_WallSlide_InitEv
0201fcd4 g       *ABS*	00000000 LoadFont
020f97d0 g       *ABS*	00000000 _ZN7Minimap21FixTHIPaintingRoomPosER7Vector3
02014ff0 g       *ABS*	00000000 _ZN12CylinderClsn6UpdateEv
0200e748 g       *ABS*	00000000 ReadUnalignedInt
020ab820 g       *ABS*	00000000 _ZN3OAM19MM_MARIO_L_CAP_ICONE
02050c78 g       *ABS*	00000000 _ZN5Sound17InfoSequenceEntry9GetWithIDEj
021106f4 g       *ABS*	00000000 _ZN6Player12ST_HEADSTANDE
021101b4 g       *ABS*	00000000 _ZN6Player7ST_FALLE
02021788 g       *ABS*	00000000 _ZN3OAM5ResetEv
02043dec g       *ABS*	00000000 _ZN9ActorBaseC1Ev
040004cc g       *ABS*	00000000 GXPORT_LIGHT_COLOR
020c3dd0 g       *ABS*	00000000 _ZN6Player21St_OpeningWakeUp_MainEv
0202e088 g       *ABS*	00000000 _ZN5StageC1Ev
020465fc g       *ABS*	00000000 _ZN8BMD_File12InitPointersEv
020d7ed0 g       *ABS*	00000000 _ZN6Player18St_YoshiPower_InitEv
02056254 g       *ABS*	00000000 _ZN2GX11LoadBG0CharEPKvjj
0210c834 g       *ABS*	00000000 _ZN3OAM27MM_VS_BLUE_YOSHI_L_CAP_ICONE
0211019c g       *ABS*	00000000 _ZN6Player7ST_JUMPE
021106dc g       *ABS*	00000000 _ZN6Player8ST_CLIMBE
020efaf0 g       *ABS*	00000000 _ZN8PathLift17BaseInitResourcesEv
0209f324 g       *ABS*	00000000 WIPES
020150a8 g       *ABS*	00000000 _ZN12CylinderClsnD1Ev
02010148 g       *ABS*	00000000 _ZN5Actor15OnGroundPoundedERS_
0209cef8 g       *ABS*	00000000 numCommonModelData
0203ca44 g       *ABS*	00000000 _ZN4HeapD1Ev
0208c378 g       *ABS*	00000000 debug_level_select_arrow_ncg_bin
020cac38 g       *ABS*	00000000 _ZN6Player21St_CameraZoom_CleanupEv
02110484 g       *ABS*	00000000 _ZN6Player15ST_CRAZED_CRATEE
0209f238 g       *ABS*	00000000 SELECTED_ARROW
02018eb8 g       *ABS*	00000000 _ZN5Scene14GraphCallback0Ev
02010f3c g       *ABS*	00000000 _ZN5Actor10FindWithIDEj
02039760 g       *ABS*	00000000 _ZN8KCL_File12InitPointersEv
020188a8 g       *ABS*	00000000 LoadArchive
02023134 g       *ABS*	00000000 _ZN8Particle7Texture12AllocTexVramEjb
0208e7cc g       *ABS*	00000000 _ZTV15TextureSequence
020163e0 g       *ABS*	00000000 _ZN14BlendModelAnim7SetAnimER8BCA_Fileii5Fix12IiEt
02055148 g       *ABS*	00000000 _ZN3G2S12GetBG1ScrPtrEv
0210c7ec g       *ABS*	00000000 _ZN3OAM26MM_VS_RED_YOSHI_W_CAP_ICONE
0210c570 g       *ABS*	00000000 _ZN3OAM14MM_SILVER_STARE
0205a10c g       *ABS*	00000000 DMASyncHalfTransfer
020fb8bc g       *ABS*	00000000 _ZN7MinimapC1Ev
0211052c g       *ABS*	00000000 _ZN6Player12ST_BACK_FLIPE
02036ee4 g       *ABS*	00000000 _ZN12WithMeshClsn22UpdateDiscreteNoLava_2Ev
020dca80 g       *ABS*	00000000 _ZN6Player17St_ButtSlide_InitEv
02018fc4 g       *ABS*	00000000 SetBg2Offset
02022630 g       *ABS*	00000000 _ZN8Particle14SimpleCallback8OnUpdateERNS_6SystemEb
021103ac g       *ABS*	00000000 _ZN6Player13ST_WALL_SLIDEE
02013ee8 g       *ABS*	00000000 _ZN12ActorDerived5SpawnEjP9ActorBasejh
0203c444 g       *ABS*	00000000 _ZN13ExpandingHeap7VSizeofEPKv
02110184 g       *ABS*	00000000 _ZN6Player14ST_TURN_AROUNDE
020555bc g       *ABS*	00000000 _ZN3G3X11SetFogTableEPv
020e717c g       *ABS*	00000000 UnloadSilverStarAndNumber
020cfa90 g       *ABS*	00000000 _ZN6Player14St_OnWall_InitEv
0202ae2c g       *ABS*	00000000 PrepareVsMode
0209f2bc g       *ABS*	00000000 VS_MODE_COUNTDOWN
0202ded4 g       *ABS*	00000000 _Z17LoadLevelOverlaysi
0209f340 g       *ABS*	00000000 LEVEL_FILE
020d6084 g       *ABS*	00000000 _ZN6Player23St_InYoshiMouth_CleanupEv
02014a2c g       *ABS*	00000000 _ZN25MovingCylinderClsnWithPos6GetPosEv
02013d54 g       *ABS*	00000000 _ZN8SaveData12ReadFileDataEjP12FileSaveData
020bed98 g       *ABS*	00000000 _ZN6Player12FinishedAnimEv
02052b34 g       *ABS*	00000000 InvMat4x3
0202a67c g       *ABS*	00000000 OpenCannonInCurLevel
02016144 g       *ABS*	00000000 _ZN11CommonModel9DoSetFileER8BMD_Filebi
020ff060 g       *ABS*	00000000 COIN_POLY4_MODEL_PTRS
020e13c0 g       *ABS*	00000000 _ZN6Player21St_HeadstandJump_MainEv
0202b5ec g       *ABS*	00000000 _ZN5Stage9LoadModelEv
0209f318 g       *ABS*	00000000 CAMERA
0209211c g       *ABS*	00000000 RETURN_LEVEL_ID
0208e860 g       *ABS*	00000000 _ZTV11ShadowModel
04000440 g       *ABS*	00000000 GXPORT_MATRIX_MODE
0202e5d0 g       *ABS*	00000000 _ZN5Scene21AfterCleanupResourcesEj
02013e0c g       *ABS*	00000000 _ZN8SaveData16EraseAllSaveDataEv
0205256d g       *ABS*	00000000 Matrix3x3_SetRotationY
02015c3c g       *ABS*	00000000 _ZN9Animation7AdvanceEv
020171b8 g       *ABS*	00000000 _ZThn80_N9AnimationD1Ev
02012a68 g       *ABS*	00000000 _ZN5Sound8SetMusicEjj
0210d250 g       *ABS*	00000000 _ZN3OAM20VS_NEW_STAR_APPEAREDE
020a0db0 g       *ABS*	00000000 FRAME_TIMER
02012d2c g       *ABS*	00000000 _ZN5Sound17ChangeMusicVolumeEj5Fix12IiE
020469ac g       *ABS*	00000000 _ZN8BCA_File12InitPointersEv
02022f20 g       *ABS*	00000000 _ZN8Particle10SysTracker6UpdateEv
0203d0d0 g       *ABS*	00000000 Vec3_Lsl
02055168 g       *ABS*	00000000 _ZN2G212GetBG1ScrPtrEv
0203c598 g       *ABS*	00000000 _ZN9SolidHeap11VMemoryLeftEv
020abac0 g       *ABS*	00000000 _ZN3OAM16SMALL_STAR_EMPTYE
0208c178 g       *ABS*	00000000 font_2D_ncl_bin
0210ca78 g       *ABS*	00000000 _ZN3OAM18VS_YELLOW_NUMBER_1E
0209f300 g       *ABS*	00000000 STAGE_TIMER
0204e1a8 g       *ABS*	00000000 _ZN22ExpandingHeapAllocator10DeallocateEPv
02039478 g       *ABS*	00000000 _ZN16MeshColliderBase10DetectClsnER11RaycastLine
0203cbf0 g       *ABS*	00000000 _ZdaPvj
020da41c g       *ABS*	00000000 _ZN6Player21St_BowserSpin_CleanupEv
021103c4 g       *ABS*	00000000 _ZN6Player20ST_BOWSER_EARTHQUAKEE
02056194 g       *ABS*	00000000 _ZN2GX11LoadBG1CharEPKvjj
02018144 g       *ABS*	00000000 Deallocate
0210d9b0 g       *ABS*	00000000 POWER_FLOWER_OPEN_MODEL_PTR
0211010c g       *ABS*	00000000 _ZN6Player11ST_DEAD_HITE
02053090 g       *ABS*	00000000 _ZNH5Fix12IiE12InverseAsyncES0_
02054f30 g       *ABS*	00000000 _ZN3G2S12GetBG3ScrPtrEv
02010714 g       *ABS*	00000000 _ZN5Actor10SpawnCoinsERK7Vector3j5Fix12IiEs
0208f074 g       *ABS*	00000000 TALK_FONT_CHAR_WIDTHS
02017c54 g       *ABS*	00000000 _ZN13SharedFilePtr12LoadInternalEv
020ca344 g       *ABS*	00000000 _ZN6Player13TryTalkToDoorEh
0209f344 g       *ABS*	00000000 VS_STAR_SPAWN_ORDER
0203ca80 g       *ABS*	00000000 _ZN13ExpandingHeapC2EPvjP4HeapP22ExpandingHeapAllocator
0203c3e0 g       *ABS*	00000000 _ZN13ExpandingHeap10VGetNodeIDEv
0204e8e0 g       *ABS*	00000000 _ZN22ExpandingHeapAllocator8LinkNodeEP10MemoryNodeS1_S1_
02019070 g       *ABS*	00000000 Enable3dEngines
0201061c g       *ABS*	00000000 _ZN5Actor15GivePlayerCoinsER6Playerjj
02039480 g       *ABS*	00000000 _ZN16MeshColliderBase10DetectClsnER13RaycastGround
02010d40 g       *ABS*	00000000 _ZN5Actor22UpdatePosWithOnlySpeedEP12CylinderClsn
0203bd6c g       *ABS*	00000000 Matrix4x3_FromRotationY
0203923c g       *ABS*	00000000 _ZN16MeshColliderBase21UpdatePosWithVelocityERS_P5ActorR10ClsnResultR7Vector3P10Vector3_16S8_
02017698 g       *ABS*	00000000 _ZN15FaderBrightness14SetForwardTimeEj
020e1238 g       *ABS*	00000000 _ZN6Player16St_LongJump_MainEv
020ae890 g       *ABS*	00000000 _ZN5Enemy10KillByKickER5Actor
02045c10 g       *ABS*	00000000 _ZN5Model17LoadTextureToVramEPcj
0204dee0 g       *ABS*	00000000 _ZN18NestedHeapIterator4InitEP13HeapAllocator
0209fc68 g       *ABS*	00000000 DP_STATE
02023598 g       *ABS*	00000000 _ZN9BootSceneD2Ev
0204e0f8 g       *ABS*	00000000 _ZN22ExpandingHeapAllocator18MaxAllocatableSizeEi
04001030 g       *ABS*	00000000 reg_G2S_DB_BG3PA
0203ce2c g       *ABS*	00000000 NormalizeVec3IfNonZero
0209e660 g       *ABS*	00000000 _ZN3OAM14subOAMDisabledE
0202fd0c g       *ABS*	00000000 _ZN4View6RenderEv
02015bec g       *ABS*	00000000 _ZN9Animation8GetFlagsEv
02053108 g       *ABS*	00000000 _Z20HardwareDivResultQ32v
020061b0 g       *ABS*	00000000 _ZN8CapEnemy10ReleaseCapERK7Vector3
0203b6a4 g       *ABS*	00000000 Vec3_RotateYAndTranslate
04000214 g       *ABS*	00000000 reg_OS_IF
020a4b54 g       *ABS*	00000000 ACTOR_ACTOR_ID
02013b18 g       *ABS*	00000000 _ZN8SaveData16HasPlayerLostCapEv
020ef320 g       *ABS*	00000000 _ZN8PathLiftD0Ev
0205485c g       *ABS*	00000000 _ZN2GX13SetBankForOBJEt
02016518 g       *ABS*	00000000 _ZN14BlendModelAnim9Virtual10ER9Matrix4x3
0203c8e8 g       *ABS*	00000000 _ZN4Heap14CreateRootHeapEPvj
0208eeec g       *ABS*	00000000 MSG_ID_CHAR_MAP
020bf548 g       *ABS*	00000000 _ZN6Player9GetHealthEv
0203a660 g       *ABS*	00000000 _ZN21ExtendingMeshCollider10DetectClsnER10SphereClsn
0204357c g       *ABS*	00000000 _ZN9ActorBase9Virtual34Ejj
020157ac g       *ABS*	00000000 _ZN15MaterialChanger7SetFileER8BMA_Filei5Fix12IiEj
0210c4a8 g       *ABS*	00000000 _ZN3OAM20CAM_BUTTON_R_PRESSEDE
020abad0 g       *ABS*	00000000 _ZN3OAM10POWER_STARE
0203c664 g       *ABS*	00000000 _ZN4Heap6IntactEv
020c4f40 g       *ABS*	00000000 _ZN6Player12Unk_020c4f40Et
02010518 g       *ABS*	00000000 _ZN5Actor24BumpedUnderneathByPlayerER6Player
06600000 g       *ABS*	00000000 objTilesSub
02015058 g       *ABS*	00000000 _ZN12CylinderClsnD2Ev
0203c72c g       *ABS*	00000000 _ZN13ExpandingHeap8VDestroyEv
0200f7a8 g       *ABS*	00000000 _ZN5Actor19MakeVanishLuigiWorkER12CylinderClsn
02017418 g       *ABS*	00000000 _ZN9FaderWipeD0Ev
020cac30 g       *ABS*	00000000 _ZN6Player12St_Null_InitEv
0202fd4c g       *ABS*	00000000 Quaternion_FromVector3
0210c468 g       *ABS*	00000000 _ZN3OAM14S_CAM_BUTTON_LE
02029ea4 g       *ABS*	00000000 _ZN5Event8ClearBitEj
0202acfc g       *ABS*	00000000 SetPlayerGlobals
02035448 g       *ABS*	00000000 _ZN4BgCh19StartDetectingToxicEv
020149c8 g       *ABS*	00000000 _ZN18MovingCylinderClsnC1Ev
0201cf80 g       *ABS*	00000000 _ZN7Message21DisplayLevelClearTextEta
020356b4 g       *ABS*	00000000 _ZN12WithMeshClsn13SetLimMovFlagEv
0203be9c g       *ABS*	00000000 Matrix4x3_FromRotationXYZExt
020fc81c g       *ABS*	00000000 _ZN3HUD15RenderCoinCountEv
02010f78 g       *ABS*	00000000 _ZN5Actor12BeforeRenderEv
02075f14 g       *ABS*	00000000 PARTICLE_ROM_EMBEDDED_FILE
020d0a44 g       *ABS*	00000000 _ZN6Player17St_LedgeHang_MainEv
02039488 g       *ABS*	00000000 _ZN4BgCh21ShouldPassThroughImplEPvRK4CLPSRKS_b
0203c5e4 g       *ABS*	00000000 _ZN9SolidHeap22VMaxAllocationUnitSizeEv
02099dd0 g       *ABS*	00000000 _ZTV13ExpandingHeap
02022bf8 g       *ABS*	00000000 _ZN8Particle6System10NewWeatherEjj5Fix12IiES2_S2_PK11Vector3_16fj
0204d8b0 g       *ABS*	00000000 _ZN8Particle12Acceleration4FuncERNS_10EffectDataEPcR7Vector3
0210d420 g       *ABS*	00000000 _ZN3OAM5VS_GOE
020d9c44 g       *ABS*	00000000 _ZN6Player12GetHurtStateEv
0210c568 g       *ABS*	00000000 _ZN3OAM20MM_SILVER_STAR_FADEDE
02010b9c g       *ABS*	00000000 _ZN5Actor18DropShadowScaleXYZER11ShadowModelR9Matrix4x35Fix12IiES5_S5_j
0202376c g       *ABS*	00000000 _ZN5Stage9VE_UpdateEv
0203c454 g       *ABS*	00000000 _ZN4Heap6SizeofEPKv
0214872c g       *ABS*	00000000 DOOR_STAR_3_MODEL_PTR
02018ea8 g       *ABS*	00000000 _ZN5Scene14GraphCallback2Ev
02014aa8 g       *ABS*	00000000 _ZN12CylinderClsn7ProcessEv
02012154 g       *ABS*	00000000 _ZN5Sound13PlayCharVoiceEjjRK7Vector3
02022b58 g       *ABS*	00000000 _ZN8Particle20RunningSlidingDustAtE5Fix12IiES1_S1_
020e0d48 g       *ABS*	00000000 _ZN6Player19St_CrazedCrate_MainEv
020c5560 g       *ABS*	00000000 _ZN6Player24St_BowserEarthquake_MainEv
0208f41c g       *ABS*	00000000 _ZTVN8Particle24CheckWaterRippleCallbackE
02015a2c g       *ABS*	00000000 _ZN15TextureSequenceD1Ev
0200e798 g       *ABS*	00000000 EndKuppaScript
0211016c g       *ABS*	00000000 _ZN6Player10ST_GRABBEDE
0201e81c g       *ABS*	00000000 _ZN7Message30DisplayCourseNameForStarSelectEj
01ffadf0 g       *ABS*	00000000 __aeabi_uidiv
0202e36c g       *ABS*	00000000 _ZN5Scene15SetSceneToSpawnEjj
020fe40c g       *ABS*	00000000 _Z22LoadMinimapTileObjectsRN12LevelOverlay11ObjSubTableEij
02018ea0 g       *ABS*	00000000 _ZN5Scene14GraphCallback3Ev
02050bb0 g       *ABS*	00000000 _ZN5Sound23InfoInstrumentBankEntry9GetWithIDEj
0210c608 g       *ABS*	00000000 _ZN3OAM14HEALTH_METER_2E
02043d48 g       *ABS*	00000000 _ZN9ActorBaseD1Ev
020bea94 g       *ABS*	00000000 _ZN6Player15IsCollectingCapEv
02110aec g       *ABS*	00000000 AMBIENT_SOUND_EFFECTS_DISABLED
0202e73c g       *ABS*	00000000 _ZN5Stage12SetVramBanksEv
0203cbf0 g       *ABS*	00000000 _ZdaPv
0210c9f4 g       *ABS*	00000000 _ZN3OAM15VS_RED_NUMBER_1E
02035728 g       *ABS*	00000000 _ZN12WithMeshClsn22ClearJustHitGroundFlagEv
02039cb8 g       *ABS*	00000000 _ZN18MovingMeshCollider10DetectClsnER13RaycastGround
0208eaf4 g       *ABS*	00000000 _ZTV5Fader
0211013c g       *ABS*	00000000 _ZN6Player7ST_WALKE
0203d138 g       *ABS*	00000000 Vec3_Asr
020d4fe4 g       *ABS*	00000000 _ZN6Player8BlowAwayEs
0200fb4c g       *ABS*	00000000 _ZN5Actor14BigLandingDustEb
02029b04 g       *ABS*	00000000 EnterBigBoosHaunt
02056870 g       *ABS*	00000000 _ZN2GX10LoadBGPlttEPKvjj
0200fec8 g       *ABS*	00000000 _ZN5Actor17GetWaterHeightWDWEv
0211070c g       *ABS*	00000000 _ZN6Player12ST_POLE_JUMPE
0205525c g       *ABS*	00000000 _ZN3G2x13SetBlendAlphaEPVttttt
020abac8 g       *ABS*	00000000 _ZN3OAM11SILVER_STARE
020a0ea4 g       *ABS*	00000000 _ZN6Memory15rootParamOffsetE
0203ca10 g       *ABS*	00000000 _ZN4HeapD2Ev
020aeabc g       *ABS*	00000000 _ZN5Enemy9SpawnCoinEv
05000600 g       *ABS*	00000000 objPaletteSub
0203c758 g       *ABS*	00000000 _ZN4Heap7DestroyEv
0208f40c g       *ABS*	00000000 _ZTVN8Particle13ScaleCallbackE
02013ea4 g       *ABS*	00000000 _ZN12ActorDerivedD0Ev
0209d6a8 g       *ABS*	00000000 MSG_LINE_HEIGHT
0201489c g       *ABS*	00000000 _ZN25MovingCylinderClsnWithPos21SetPosRelativeToActorERK7Vector3
0204dd98 g       *ABS*	00000000 _ZN18NestedHeapIterator5AddAtEP13HeapAllocatorS1_
020fca18 g       *ABS*	00000000 _ZN3HUD13RenderVsTimerEv
020dcc28 g       *ABS*	00000000 _ZN6Player20St_StomachSlide_MainEv
0209f20c g       *ABS*	00000000 PAUSE_LEVEL_CLEAR_SAVE_MENU_ACTIVE
0203af34 g       *ABS*	00000000 _Z15ApproachLinear2Riii
020abd88 g       *ABS*	00000000 _ZN3OAM14BOUNCING_ARROWE
0211025c g       *ABS*	00000000 _ZN6Player12ST_DEBUG_FLYE
02014954 g       *ABS*	00000000 _ZN18MovingCylinderClsnD2Ev
01ffa9dc g       *ABS*	00000000 __aeabi_uldiv
0208e4b0 g       *ABS*	00000000 _ZTV12ActorDerived
0202e1e0 g       *ABS*	00000000 _ZN5Scene9SetFadersEP15FaderBrightness
0209e650 g       *ABS*	00000000 RNG_STATE
0400001c g       *ABS*	00000000 reg_G2_BG3OFS
020f99a8 g       *ABS*	00000000 _ZN7Minimap19UpdateLevelSpecificEv
0203b0e8 g       *ABS*	00000000 AngleDiff
020ae608 g       *ABS*	00000000 _ZN5Enemy18DeathByOtherAttackER12WithMeshClsn
023c3ff8 g       *ABS*	00000000 __irq_flags
0203a444 g       *ABS*	00000000 _ZN18MovingMeshColliderD0Ev
0205a4a8 g       *ABS*	00000000 CpuFill32Fast
0400003c g       *ABS*	00000000 reg_G2_BG3Y
02013b9c g       *ABS*	00000000 _ZN8SaveData15SaveCurrentFileEv
020226c8 g       *ABS*	00000000 _ZN8Particle8Callback8OnUpdateERNS_6SystemEb
06000000 g       *ABS*	00000000 bgTiles
02013b5c g       *ABS*	00000000 _ZN8SaveData16CanPlayerHaveCapEv
020dc510 g       *ABS*	00000000 _ZN6Player17St_SweepKick_InitEv
020a0d8c g       *ABS*	00000000 NUM_PATHS
0203d290 g       *ABS*	00000000 Vec3_MulScalar
02055f90 g       *ABS*	00000000 _ZN3GXS18BeginLoadBGExtPlttEv
020cad10 g       *ABS*	00000000 _ZN6Player18St_CameraZoom_MainEv
020fe5e0 g       *ABS*	00000000 _Z23LoadTeleportDestObjectsRN12LevelOverlay11ObjSubTableEij
02029b84 g       *ABS*	00000000 HitDeathPlane
020a4be0 g       *ABS*	00000000 VRAM_Tex4x4_IndexData_Start
020becc8 g       *ABS*	00000000 _ZNK6Player14GetBodyModelIDEjb
020eff18 g       *ABS*	00000000 _ZN8PathLift9AfterClsnEv
020f975c g       *ABS*	00000000 _ZN7MinimapD1Ev
02048eb4 g       *ABS*	00000000 _ZN5Sound13Func_02048eb4Ev
0210c754 g       *ABS*	00000000 _ZN3OAM16MM_VS_YOSHI_ICONE
02016714 g       *ABS*	00000000 _ZN9ModelAnim4CopyERKS_Pc
02099d40 g       *ABS*	00000000 _ZTV9SolidHeap
02012998 g       *ABS*	00000000 _ZN5Sound8EndMusicEjj
0200fd04 g       *ABS*	00000000 _ZN5Actor19DisappearPoofDustAtERK7Vector3
020fc77c g       *ABS*	00000000 _ZN3HUD14RenderRedCoinsEv
020def14 g       *ABS*	00000000 _ZN6Player14St_Cannon_MainEv
020df3ec g       *ABS*	00000000 _ZN6Player11St_Owl_MainEv
0200f04c g       *ABS*	00000000 ResetKuppaScript
0203c634 g       *ABS*	00000000 _ZN4Heap6RescueEv
0201e574 g       *ABS*	00000000 _ZN7Message7DisplayEj
020c7838 g       *ABS*	00000000 _ZN6Player18St_LevelEnter_InitEv
0210c8e4 g       *ABS*	00000000 _ZN3OAM23MM_VS_BLUE_YOSHI_ICON_SE
0203ca54 g       *ABS*	00000000 _ZN9SolidHeapC1EPvjP4HeapP18SolidHeapAllocator
020ade78 g       *ABS*	00000000 _ZN5Enemy14UpdateYoshiEatER12WithMeshClsn
020dd79c g       *ABS*	00000000 _ZN6Player17St_PunchKick_InitEv
02058c5c g       *ABS*	00000000 _ZN4CP1516DrainWriteBufferEv
020195c0 g       *ABS*	00000000 _ZN5Timer9StopTimerEv
02110124 g       *ABS*	00000000 _ZN6Player11ST_DEAD_PITE
020bef2c g       *ABS*	00000000 _ZN6Player7SetAnimEji5Fix12IiEj
02043ac8 g       *ABS*	00000000 _ZN9ActorBase12BeforeRenderEv
02092678 g       *ABS*	00000000 _ZTV5Scene
02043dbc g       *ABS*	00000000 _ZN9ActorBaseD2Ev
0206daac g       *ABS*	00000000 _ZN4CP1514MPUDataRegion7Ej
02070508 g       *ABS*	00000000 strcmp
0211040c g       *ABS*	00000000 _ZN6Player18ST_STUCK_IN_GROUNDE
020d8e70 g       *ABS*	00000000 _ZN6Player4HurtERK7Vector3j5Fix12IiEjjj
02016068 g       *ABS*	00000000 _ZN11ShadowModelC1Ev
0400100c g       *ABS*	00000000 reg_G2S_DB_BG2CNT
0210c994 g       *ABS*	00000000 _ZN3OAM31MM_VS_YELLOW_YOSHI_L_CAP_ICON_SE
0202e140 g       *ABS*	00000000 _ZN5SceneD1Ev
020d8274 g       *ABS*	00000000 _ZN6Player21St_DizzyStars_CleanupEv
02011ffc g       *ABS*	00000000 _ZN5Sound16LoadInitialGroupEi
0200d304 g       *ABS*	00000000 _ZN6Camera14GoBehindPlayerEj
0209f268 g       *ABS*	00000000 NEXT_ENTRANCE_ID
0203c0b4 g       *ABS*	00000000 Matrix4x3_ApplyInPlaceToRotationXYZExt
020e71d4 g       *ABS*	00000000 LinkSilverStarAndStarMarker
020226d0 g       *ABS*	00000000 _ZN8Particle8Callback14SpawnParticlesERNS_6SystemE
0209f2dc g       *ABS*	00000000 SELECTED_CONTROLLER_MODE
020e6c0c g       *ABS*	00000000 _ZN6PlayerC3Ev
020a4b60 g       *ABS*	00000000 ACTOR_PARAM1
02013dc4 g       *ABS*	00000000 _ZN8SaveData16SetDefaultValuesEP12FileSaveData
02013548 g       *ABS*	00000000 GetLevelPart
0210d9c0 g       *ABS*	00000000 WARIO_CAP_MODEL_PTR
0203cbf0 g       *ABS*	00000000 _ZN6Memory4freeEPv
020d0824 g       *ABS*	00000000 _ZN6Player17St_LedgeGrab_MainEv
020ca3d0 g       *ABS*	00000000 _ZN6Player21IsOpeningDoorWithStarEv
02055278 g       *ABS*	00000000 _ZN3G2x12SetBGyAffineEPVtP9Matrix2x2iiii
020ab8d0 g       *ABS*	00000000 _ZN3OAM19MM_WARIO_M_CAP_ICONE
02022f40 g       *ABS*	00000000 _ZN8Particle10SysTracker10InitialiseEv
0209f218 g       *ABS*	00000000 PAUSED_WITH_SELECT
0203b7dc g       *ABS*	00000000 Vec3_ApproachHorz
0205536c g       *ABS*	00000000 Geometry_MatrixMultiply3x3
0202e26c g       *ABS*	00000000 _ZN5Scene16SpawnIfNecessaryEv
0209d658 g       *ABS*	00000000 MSG_BOX_CURR_LEFT_X
0200fac4 g       *ABS*	00000000 _ZN5Actor13LandingDustAtER7Vector3b
0202b3d8 g       *ABS*	00000000 CopyTexPalFromLevelModel
02015900 g       *ABS*	00000000 _ZN18TextureTransformerD0Ev
020136dc g       *ABS*	00000000 CollectStarInLevel
020d2224 g       *ABS*	00000000 _ZN6Player21St_WaitQuicksand_InitEv
020e72d8 g       *ABS*	00000000 _ZN10StarMarker27SpawnRedCoinStarIfNecessaryEv
020fe3cc g       *ABS*	00000000 _Z21LoadStarCameraObjectsRN12LevelOverlay11ObjSubTableEij
0209d6c8 g       *ABS*	00000000 MSG_BOX_CENTER_Y
0203c568 g       *ABS*	00000000 _ZN13ExpandingHeap11VReallocateEPvj
0210d9e0 g       *ABS*	00000000 BOB_OMB_MODEL_PTR
02014978 g       *ABS*	00000000 _ZN18MovingCylinderClsnD0Ev
020c816c g       *ABS*	00000000 _ZN6Player17St_NoControl_MainEv
02056998 g       *ABS*	00000000 _ZN2GX16BeginLoadTexPlttEv
0210d9d8 g       *ABS*	00000000 ONE_UP_MUSHROOM_MODEL_PTR
0209f288 g       *ABS*	00000000 DISPLAY_RED_COINS_MINIMAP
0214873c g       *ABS*	00000000 DOOR_STAR_0_MODEL_PTR
02110664 g       *ABS*	00000000 _ZN6Player7ST_NULLE
020a0ea8 g       *ABS*	00000000 _ZN6Memory10tmpHeapPtrE
02010160 g       *ABS*	00000000 _ZN5Actor13OnYoshiTryEatEv
02017848 g       *ABS*	00000000 _ZN5FaderD0Ev
0209f248 g       *ABS*	00000000 PAUSE_MENU_ID
02090900 g       *ABS*	00000000 _Z21DLCleanAllUsedByLevelv
020dfdf0 g       *ABS*	00000000 _ZN6Player11St_Fly_MainEv
020e03b8 g       *ABS*	00000000 _ZN6Player16InitWingFeathersEb
02023204 g       *ABS*	00000000 _ZN8Particle10SysTrackerC1Ev
02006280 g       *ABS*	00000000 _ZN8CapEnemy14RenderCapModelEPK7Vector3
0208e7bc g       *ABS*	00000000 _ZTV18TextureTransformer
0204e370 g       *ABS*	00000000 _ZN22ExpandingHeapAllocator8AllocateEji
0209f254 g       *ABS*	00000000 UNK_YOSHI_EGG_RELATED
02010140 g       *ABS*	00000000 _ZN5Actor11OnAttacked2ERS_
0200f70c g       *ABS*	00000000 _ZN5Actor22IsTooFarAwayFromPlayerE5Fix12IiE
020aed74 g       *ABS*	00000000 _ZN5EnemyD2Ev
020a4bd8 g       *ABS*	00000000 VRAM_Pal_End
02014214 g       *ABS*	00000000 ResetCrashScreen
02043d78 g       *ABS*	00000000 _ZN9ActorBaseD0Ev
020e17f8 g       *ABS*	00000000 _ZN6Player16St_PoleJump_InitEv
0209b454 g       *ABS*	00000000 NEXT_ACTOR_UPDATE_FLAGS
020230d8 g       *ABS*	00000000 PARTICLE_SPA_FILE
02016abc g       *ABS*	00000000 _ZN5Model12SetPolygonIDEi
020fda04 g       *ABS*	00000000 _ZN3HUD13InitResourcesEv
0204e084 g       *ABS*	00000000 _ZN22ExpandingHeapAllocator14SizeofInternalEPKv
02111148 g       *ABS*	00000000 CUR_MINIMAP_ID
0210ca88 g       *ABS*	00000000 _ZN3OAM17VS_YELLOW_NUMBERSE
020deefc g       *ABS*	00000000 _ZN6Player17St_Cannon_CleanupEv
0204ea08 g       *ABS*	00000000 _ZN18SolidHeapAllocator14TryResizeToFitEv
020ae87c g       *ABS*	00000000 _ZN5Enemy10KillByBurnER5Actor
0210c84c g       *ABS*	00000000 _ZN3OAM22MM_VS_YOSHI_W_CAP_ICONE
0202ddd4 g       *ABS*	00000000 IsLevelTinyHugeIslandOutside
0210c974 g       *ABS*	00000000 _ZN3OAM29MM_VS_BLUE_YOSHI_L_CAP_ICON_SE
0202af48 g       *ABS*	00000000 GetMinimapScale
02016b78 g       *ABS*	00000000 _ZN5Model6RenderEPK7Vector3
020176d8 g       *ABS*	00000000 _ZN15FaderBrightness15SetBackwardTimeEj
02016df8 g       *ABS*	00000000 CleanCommonModelDataArr
0202aa88 g       *ABS*	00000000 ChangeArea
0203db24 g       *ABS*	00000000 GetAngleToCamera
020fe4f0 g       *ABS*	00000000 _Z15LoadDoorObjectsRN12LevelOverlay11ObjSubTableEij
0210c8dc g       *ABS*	00000000 _ZN3OAM25MM_VS_YELLOW_YOSHI_ICON_SE
02039894 g       *ABS*	00000000 _ZN12MeshColliderC1Ev
020df288 g       *ABS*	00000000 _ZN6Player16IsInsideOfCannonEv
020104dc g       *ABS*	00000000 _ZNK5Actor15IsPlayerInRangeEi
020d529c g       *ABS*	00000000 _ZN6Player16St_BurnLava_InitEv
020c7e84 g       *ABS*	00000000 _ZN6Player15IsEnteringLevelEv
0204e910 g       *ABS*	00000000 _ZN22ExpandingHeapAllocator10UnlinkNodeEP10MemoryNodeS1_
0210caec g       *ABS*	00000000 _ZN3OAM13MM_SPIKE_BOMBE
020373f8 g       *ABS*	00000000 _ZN12WithMeshClsnD1Ev
020182ac g       *ABS*	00000000 LoadFileAt
02011214 g       *ABS*	00000000 _ZN5Actor21AfterCleanupResourcesEj
02043bf0 g       *ABS*	00000000 _ZN9ActorBase16CleanupResourcesEv
0208e874 g       *ABS*	00000000 _ZTV9ModelBase
0209d654 g       *ABS*	00000000 IS_SAVING_MESSAGE_DISPLAYED
020ad838 g       *ABS*	00000000 _ZN5Enemy26UpdateKillByInvincibleCharER12WithMeshClsnR9ModelAnimj
020a4d6c g       *ABS*	00000000 _ZN5Sound7PLAYERSE
02010fd4 g       *ABS*	00000000 _ZN5Actor14BeforeBehaviorEv
02018f54 g       *ABS*	00000000 SetSubBg2Offset
02012768 g       *ABS*	00000000 _ZN5Sound15PlayArchive3_2DEj
0201d018 g       *ABS*	00000000 _ZN7Message22DisplayOptionsMenuTextEt
0202aa2c g       *ABS*	00000000 HideArea
02026148 g       *ABS*	00000000 _ZN5Stage17UpdateMenuButtonsEb
020a4d34 g       *ABS*	00000000 _ZN6Memory25isRootHeapIterInitializedE
0209f2d0 g       *ABS*	00000000 NUM_TELEPORT_DEST_OBJS
020e13c0 g       *ABS*	00000000 _ZN6Player16St_SideFlip_MainEv
0202202c g       *ABS*	00000000 _ZN8Particle16FitWaterCallback8OnUpdateERNS_6SystemEb
0208f43c g       *ABS*	00000000 _ZTVN8Particle22FitWaterSimpleCallbackE
04000022 g       *ABS*	00000000 reg_G2_BG2PB
02015a50 g       *ABS*	00000000 _ZN15TextureSequenceC1Ev
0210dbc0 g       *ABS*	00000000 ENEMY_DEATH_FUNCS
02016ce0 g       *ABS*	00000000 _ZN5ModelD0Ev
02052624 g       *ABS*	00000000 MulMat3x3Mat3x3
0203b4dc g       *ABS*	00000000 _Z5Atan2ii
0210ca50 g       *ABS*	00000000 _ZN3OAM18VS_YELLOW_NUMBER_6E
02010124 g       *ABS*	00000000 _ZN5Actor16OnAimedAtWithEggEv
020593b8 g       *ABS*	00000000 _ZN4CP1518GetDTCMBaseAddressEv
0203cf78 g       *ABS*	00000000 Vec3_HorzLen
02110424 g       *ABS*	00000000 _ZN6Player7ST_LANDE
0210c5d8 g       *ABS*	00000000 _ZN3OAM14HEALTH_METER_6E
020d53ac g       *ABS*	00000000 _ZN6Player16St_BurnFire_MainEv
020d0d78 g       *ABS*	00000000 _ZN6Player17St_WallSlide_MainEv
0204d4d0 g       *ABS*	00000000 _ZN8Particle14RadiusConverge4FuncERNS_10EffectDataEPcR7Vector3
02075264 g       *ABS*	00000000 LEVEL_PART_TABLE
020536e4 g       *ABS*	00000000 LenVec3
020d9fec g       *ABS*	00000000 _ZN6Player19St_SwingPlayer_MainEv
020299f4 g       *ABS*	00000000 FUN_020299f4
02110004 g       *ABS*	00000000 _ZN6Player13ST_LEDGE_GRABE
0200e338 g       *ABS*	00000000 _ZN6Camera13InitResourcesEv
0202e1b4 g       *ABS*	00000000 _ZN5Scene20SetAndStopColorFaderEv
02052588 g       *ABS*	00000000 Matrix3x3_SetRotationZ
020d1a1c g       *ABS*	00000000 _ZN6Player17St_HoldLight_MainEv
0208e89c g       *ABS*	00000000 _ZTV11CommonModel
0200ef80 g       *ABS*	00000000 ContinueKuppaScriptIfNecessary
0209f330 g       *ABS*	00000000 TELEPORT_DEST_OBJS_PTR
02090864 g       *ABS*	00000000 _Z6DLLoadi
020fcfec g       *ABS*	00000000 _ZN3HUD17RenderHealthMeterEv
0203c388 g       *ABS*	00000000 _ZN13ExpandingHeap12VResizeToFitEv
020dd104 g       *ABS*	00000000 _ZN6Player20St_StomachSlide_InitEv
0203940c g       *ABS*	00000000 _ZN16MeshColliderBase11GetVelocityER7Vector3
020175e8 g       *ABS*	00000000 _ZN5Fader13AdvanceInterpEv
020524f0 g       *ABS*	00000000 Matrix3x3_LoadIdentity
0201761c g       *ABS*	00000000 _ZN15FaderBrightness8SetToEndEv
020a4b4c g       *ABS*	00000000 BASE_CREATION_STATE
0201559c g       *ABS*	00000000 _ZN7Clipper13Func_0201559CEv
0200ff94 g       *ABS*	00000000 _ZN5Actor9TrackStarEjj
0203ad60 g       *ABS*	00000000 _ZNK7PathPtr8NumNodesEv
020d1354 g       *ABS*	00000000 _ZN6Player14St_Crouch_MainEv
020d5a1c g       *ABS*	00000000 _ZN6Player5ShockEj
0201587c g       *ABS*	00000000 _ZN8BMD_File11PrepareAnimER8BTA_File
0210c528 g       *ABS*	00000000 _ZN3OAM12CAM_BUTTON_LE
020fbe38 g       *ABS*	00000000 _ZN3HUD15RenderLifeCountEv
020fe5f4 g       *ABS*	00000000 _Z25LoadTeleportSourceObjectsRN12LevelOverlay11ObjSubTableEij
0202e3a4 g       *ABS*	00000000 _ZN5Scene12BeforeRenderEv
0200fdc8 g       *ABS*	00000000 _ZN5Actor14TriplePoofDustEv
04001008 g       *ABS*	00000000 reg_G2S_DB_BG0CNT
020d112c g       *ABS*	00000000 _ZN6Player13St_Crawl_InitEv
0208f3ec g       *ABS*	00000000 _ZTVN8Particle18CheckWaterCallbackE
020103b4 g       *ABS*	00000000 _ZN5Actor7FindEggER12CylinderClsn
0202a994 g       *ABS*	00000000 _Z23LoadMinimapChangeObjecti5Fix12IiEh
0211034c g       *ABS*	00000000 _ZN6Player14ST_DIZZY_STARSE
0210c76c g       *ABS*	00000000 _ZN3OAM20MM_VS_RED_YOSHI_ICONE
02148934 g       *ABS*	00000000 STAR_DOOR_MODEL_PTR
020ca410 g       *ABS*	00000000 _ZN6Player16TryTalkToKeyDoorEv
02039970 g       *ABS*	00000000 _ZN18MovingMeshCollider10DetectClsnER11RaycastLine
0202a734 g       *ABS*	00000000 GiveRedCoins
0209f4f8 g       *ABS*	00000000 ACTOR_DEATH_TABLE_ARR
02110064 g       *ABS*	00000000 _ZN6Player17ST_IN_YOSHI_MOUTHE
0201597c g       *ABS*	00000000 _ZN8BMD_File11PrepareAnimER8BTP_File
020cac20 g       *ABS*	00000000 _ZN6Player15St_Null_CleanupEv
02090864 g       *ABS*	00000000 ACTOR_SPAWN_TABLE_VANILLA
0205380c g       *ABS*	00000000 DotVec3
020ab8f0 g       *ABS*	00000000 _ZN3OAM19MM_YOSHI_L_CAP_ICONE
0203aa0c g       *ABS*	00000000 _ZN21ExtendingMeshCollider9Virtual08Ev
0209f250 g       *ABS*	00000000 CURR_PLAYER_ID
020163a0 g       *ABS*	00000000 _ZN10ModelAnim2C1Ev
020ad2d0 g       *ABS*	00000000 _ZN3OAM19DUAL_HAND_MODE_TEXTE
0205a564 g       *ABS*	00000000 Copy48Bytes
0200fd40 g       *ABS*	00000000 _ZN5Actor13SmallPoofDustEv
02056f70 g       *ABS*	00000000 _ZN3IRQ13SetIRQHandlerEjPFvvE
02099f24 g       *ABS*	00000000 PROCESS_STATE
02021e70 g       *ABS*	00000000 _ZN8Particle12ClipCallback8OnUpdateERNS_6SystemEb
020aea2c g       *ABS*	00000000 _ZN5Enemy26KillByInvincibleCharUnusedER5Actor
0204de74 g       *ABS*	00000000 _ZN18NestedHeapIterator7AddLastEP13HeapAllocator
02015bf8 g       *ABS*	00000000 _ZN9Animation8SetFlagsEi
0210c558 g       *ABS*	00000000 _ZN3OAM13MM_STAR_FADEDE
0203c4e4 g       *ABS*	00000000 _ZN9SolidHeap11VDeallocateEPv
02012bbc g       *ABS*	00000000 _ZN5Sound22LoadAndSetMusic_Layer3Ej
0205a588 g       *ABS*	00000000 CpuFill8
0209d4a8 g       *ABS*	00000000 SCENE_RELATED
0203a8fc g       *ABS*	00000000 _ZN21ExtendingMeshCollider10DetectClsnER13RaycastGround
0210da50 g       *ABS*	00000000 COIN_RED_POLY4_MODEL_PTR
020ee42c g       *ABS*	00000000 _ZN8PlatformD2Ev
02029e58 g       *ABS*	00000000 DeathTable_GetBit
0210c678 g       *ABS*	00000000 _ZN3OAM14HEALTH_METER_3E
02110154 g       *ABS*	00000000 _ZN6Player7ST_WAITE
020a1040 g       *ABS*	00000000 FRAME_COUNTER
02016d58 g       *ABS*	00000000 _ZN5ModelC1Ev
020a4b78 g       *ABS*	00000000 FIRST_BEHAVIOR_LIST_NODE
0209f340 g       *ABS*	00000000 LEVEL_OVERLAY_PTR
02056d60 g       *ABS*	00000000 _ZN3IRQ12EmptyHandlerEv
0209d4b0 g       *ABS*	00000000 KS_FADER
020fea84 g       *ABS*	00000000 _ZN11RaycastLine4Line3SetERK7Vector3S3_
02016690 g       *ABS*	00000000 _ZN14BlendModelAnimD1Ev
02010ecc g       *ABS*	00000000 _ZN5Actor4NextEPKS_
020ab870 g       *ABS*	00000000 _ZN3OAM19MM_LUIGI_M_CAP_ICONE
0209f2b4 g       *ABS*	00000000 NUM_BIG_BUTTONS
02053ad8 g       *ABS*	00000000 _ZN2GX15SetGraphicsModeEiii
0202a5c4 g       *ABS*	00000000 _ZN5Stage15IsPauseDisabledEv
02012f90 g       *ABS*	00000000 _ZN5Sound10PauseMusicEv
0209f310 g       *ABS*	00000000 NUM_VS_STARS_OBTAINED_PLAYER
02043494 g       *ABS*	00000000 _ZN9ActorBase13OnHeapCreatedEv
020d6708 g       *ABS*	00000000 _ZN6Player20RegisterEggCoinCountEjbb
0209f5e8 g       *ABS*	00000000 DEFAULT_SCENE_FADER
02043c80 g       *ABS*	00000000 _ZN9ActorBase13InitResourcesEv
020222f0 g       *ABS*	00000000 _ZN8Particle17CheckLavaCallback8OnUpdateERNS_6SystemEb
020e1714 g       *ABS*	00000000 _ZN6Player16St_PoleJump_MainEv
0203bdb0 g       *ABS*	00000000 Matrix4x3_FromRotationX
0208ee3c g       *ABS*	00000000 BACKLIGHT_ENABLED
02092718 g       *ABS*	00000000 _ZTV4View
04000026 g       *ABS*	00000000 reg_G2_BG2PD
02012940 g       *ABS*	00000000 _ZN5Sound22LoadAndSetMusic_Layer2Ej
020be324 g       *ABS*	00000000 _ZN6Player18TurnOffToonShadingEj
020db0bc g       *ABS*	00000000 _ZN6Player14St_Thrown_MainEv
020356e8 g       *ABS*	00000000 _ZNK12WithMeshClsn10IsOnGroundEv
02148724 g       *ABS*	00000000 DOOR_STAR_1_MODEL_PTR
0201647c g       *ABS*	00000000 _ZN14BlendModelAnim7AdvanceEv
020ca1b8 g       *ABS*	00000000 _ZN6Player17SetNoControlStateEhih
020c5cc8 g       *ABS*	00000000 _ZN6Player14EnterWhirlpoolEv
02091520 g       *ABS*	00000000 _ZTV9BootScene
02082128 g       *ABS*	00000000 _ZN9Matrix4x38IDENTITYE
02037430 g       *ABS*	00000000 _ZN12WithMeshClsnC1Ev
01ffb0fc g       *ABS*	00000000 _ZN12MeshCollider10DetectClsnER11RaycastLine
020d7504 g       *ABS*	00000000 _ZN6Player18St_YoshiPower_MainEv
0203caac g       *ABS*	00000000 _ZN4HeapC2EPvjPS_
021100dc g       *ABS*	00000000 _ZN6Player12ST_BURN_FIREE
02017480 g       *ABS*	00000000 _ZN9FaderWipeC1Ev
0210c174 g       *ABS*	00000000 _ZN3OAM15MM_PLAYER_ICONSE
02054c80 g       *ABS*	00000000 Vram::Map
02059d1c g       *ABS*	00000000 _ZN3IRQ7DisableEv
01ffadf0 g       *ABS*	00000000 __aeabi_uidivmod
020c6a10 g       *ABS*	00000000 _ZN6Player12Unk_020c6a10Ej
0210c448 g       *ABS*	00000000 _ZN3OAM20CAM_BUTTON_L_PRESSEDE
020358ac g       *ABS*	00000000 _ZN12WithMeshClsn20UpdateExtraContinousEv
0203c148 g       *ABS*	00000000 Matrix4x3_ApplyInPlaceToScale
020128c4 g       *ABS*	00000000 _ZN5Sound22StopLoadedMusic_Layer2Ev
020aebf8 g       *ABS*	00000000 _ZN5Enemy12UpdateWMClsnER12WithMeshClsnj
0200fe70 g       *ABS*	00000000 UnloadBlueCoinModel
020e0c04 g       *ABS*	00000000 _ZN6Player17St_SlopeJump_InitEv
020d4f8c g       *ABS*	00000000 _ZN6Player12St_Bonk_InitEv
020fe3f8 g       *ABS*	00000000 _Z23LoadMinimapScaleObjectsRN12LevelOverlay11ObjSubTableEij
0211061c g       *ABS*	00000000 _ZN6Player13ST_SWEEP_KICKE
0204ecd4 g       *ABS*	00000000 _ZN18SolidHeapAllocator16AllocateForwardsEPvjj
0203bfc0 g       *ABS*	00000000 Matrix4x3_ApplyInPlaceToRotationY
0205b864 g       *ABS*	00000000 _ZN3IRQ24IPCRxFifoNotEmptyHandlerEv
0400002c g       *ABS*	00000000 reg_G2_BG2Y
0400100e g       *ABS*	00000000 reg_G2S_DB_BG3CNT
020ae64c g       *ABS*	00000000 _ZN5Enemy13DeathBySquashER12WithMeshClsn
020534ec g       *ABS*	00000000 NormalizeVec3
0201264c g       *ABS*	00000000 _ZN5Sound12PlayArchive0EjRK7Vector3
020fb8bc g       *ABS*	00000000 _ZN7MinimapC2Ev
0202fef8 g       *ABS*	00000000 Quaternion_SLerp
0202fcc8 g       *ABS*	00000000 _ZN4ViewD0Ev
0204d7ec g       *ABS*	00000000 _ZN8Particle6Jitter4FuncERNS_10EffectDataEPcR7Vector3
0201794c g       *ABS*	00000000 _ZN13SharedFilePtr7LoadBCAEv
020137fc g       *ABS*	00000000 OpenCannonInLevel
0209b2a4 g       *ABS*	00000000 CUTSCENE_OBJECT_IDS
020a4b50 g       *ABS*	00000000 CURRENT_OBJECT_SPAWN_ID
02015888 g       *ABS*	00000000 _ZN18TextureTransformer6UpdateER15ModelComponents
0203a594 g       *ABS*	00000000 _ZN21ExtendingMeshCollider10DetectClsnER11RaycastLine
020ee934 g       *ABS*	00000000 _ZN8Platform21IsClsnInRangeOnScreenE5Fix12IiES1_
020bf4e4 g       *ABS*	00000000 _ZN6Player4HealEi
02006590 g       *ABS*	00000000 ACTOR_SPAWN_TABLE_AFTER_DL_PATCH
020ab8b8 g       *ABS*	00000000 _ZN3OAM19MM_WARIO_L_CAP_ICONE
02038b78 g       *ABS*	00000000 _ZN10SphereClsn10DetectClsnEv
020550bc g       *ABS*	00000000 _ZN2G212GetBG2ScrPtrEv
020ab948 g       *ABS*	00000000 _ZN3OAM10LIFE_ICONSE
02075298 g       *ABS*	00000000 SUBLEVEL_LEVEL_TABLE
02056d64 g       *ABS*	00000000 _ZN3IRQ15ClearInterruptsEj
02037cb0 g       *ABS*	00000000 _ZN10SphereClsnD1Ev
02022aa8 g       *ABS*	00000000 _ZN8Particle6System12NewBigSplashE5Fix12IiES2_S2_
0201e044 g       *ABS*	00000000 _ZN7Message16DisplayPauseTextEth
02043bf8 g       *ABS*	00000000 _ZN9ActorBase18AfterInitResourcesEj
02039ec0 g       *ABS*	00000000 _ZN18MovingMeshCollider9GetNormalEsR7Vector3
0208e6b4 g       *ABS*	00000000 _ZTV19CylinderClsnWithPos
020c6b3c g       *ABS*	00000000 _ZN6Player16St_Teleport_MainEv
020375d0 g       *ABS*	00000000 _ZN11RaycastLine10GetClsnPosEv
02016ca8 g       *ABS*	00000000 _ZN5ModelD2Ev
020efaa0 g       *ABS*	00000000 _ZN8PathLift12BaseBehaviorEv
0202df70 g       *ABS*	00000000 _Z26LoadOrUnloadObjectOverlaysPFviEi
020e119c g       *ABS*	00000000 _ZN6Player12St_Spin_InitEv
020203c4 g       *ABS*	00000000 WarpPlayer
020df3c8 g       *ABS*	00000000 _ZN6Player14St_Owl_CleanupEv
0200da00 g       *ABS*	00000000 _ZN6Camera16OnPendingDestroyEv
0203c184 g       *ABS*	00000000 Matrix4x3_ApplyInPlaceToTranslation
020a4be4 g       *ABS*	00000000 VRAM_Tex_Size
02015850 g       *ABS*	00000000 _ZN15MaterialChangerC1Ev
0202aac0 g       *ABS*	00000000 GiveLives
0201045c g       *ABS*	00000000 _ZNK5Actor15IsPlayerInRangeERK7Vector3i
0204df38 g       *ABS*	00000000 _ZN13HeapAllocator6RemoveEv
02015800 g       *ABS*	00000000 _ZN15MaterialChangerD0Ev
020ca488 g       *ABS*	00000000 _ZN6Player12Unk_020ca488Ev
02017684 g       *ABS*	00000000 _ZN15FaderBrightness9IsAtStartEv
0209e66c g       *ABS*	00000000 _ZN3OAM15curAffineSetSubE
0203caac g       *ABS*	00000000 _ZN4HeapC1EPvjPS_
020d2184 g       *ABS*	00000000 _ZN6Player21St_WaitQuicksand_MainEv
02023db8 g       *ABS*	00000000 _ZN5Stage9LC_RenderEv
02029654 g       *ABS*	00000000 IsButtonInputValid
0209f2f4 g       *ABS*	00000000 NUM_LIVES
0200d048 g       *ABS*	00000000 _ZN6Camera9SetFlag_3Ev
0209f200 g       *ABS*	00000000 RETURN_ENTRANCE_ID
020147d4 g       *ABS*	00000000 _ZN19CylinderClsnWithPos4InitERK7Vector35Fix12IiES4_jj
020164e4 g       *ABS*	00000000 _ZN14BlendModelAnim6RenderEPK7Vector3
020593dc g       *ABS*	00000000 _ZN4CP1510DisableMPUEv
02092778 g       *ABS*	00000000 DAT_02092778
020ab8a0 g       *ABS*	00000000 _ZN3OAM13MM_WARIO_ICONE
0210c6d8 g       *ABS*	00000000 _ZN3OAM11MM_RED_COINE
023c3ffc g       *ABS*	00000000 _ZN3IRQ14UserIRQAddressE
02110034 g       *ABS*	00000000 _ZN6Player14ST_YOSHI_POWERE
020c8128 g       *ABS*	00000000 _ZN6Player20St_NoControl_CleanupEv
0210c560 g       *ABS*	00000000 _ZN3OAM7MM_STARE
04000210 g       *ABS*	00000000 reg_OS_IE
0210c984 g       *ABS*	00000000 _ZN3OAM24MM_VS_YOSHI_W_CAP_ICON_SE
02048ee4 g       *ABS*	00000000 _ZN5Sound13Func_02048ee4Ev
0204eb30 g       *ABS*	00000000 _ZN18SolidHeapAllocator5ResetEj
0204df20 g       *ABS*	00000000 _ZN18NestedHeapIteratorC1Ej
0210c548 g       *ABS*	00000000 _ZN3OAM13MM_SMALL_STARE
020caef4 g       *ABS*	00000000 _ZN6Player18St_CameraZoom_InitEv
0210af68 g       *ABS*	00000000 _ZTV8PathLift
02023598 g       *ABS*	00000000 _ZN9BootSceneD1Ev
0204eb70 g       *ABS*	00000000 _ZN18SolidHeapAllocator8AllocateEji
020fd5d4 g       *ABS*	00000000 _ZN3HUD16CleanupResourcesEv
02043bac g       *ABS*	00000000 _ZN9ActorBase22BeforeCleanupResourcesEv
04000034 g       *ABS*	00000000 reg_G2_BG3PC
0204dfe8 g       *ABS*	00000000 _ZN18NestedHeapIterator10FindNestedEPv
0210da18 g       *ABS*	00000000 SHELL_MODEL_PTRS
0209f2e8 g       *ABS*	00000000 MAP_TILE_ARR_SIZE
0203cc0c g       *ABS*	00000000 _Znwj
02039864 g       *ABS*	00000000 _ZN12MeshColliderD1Ev
0209d70c g       *ABS*	00000000 MSG_FILE_PTR
0205a4f4 g       *ABS*	00000000 CpuCopy32Fast
0209ee74 g       *ABS*	00000000 PARTICLE_SYS_TRACKER
0203a494 g       *ABS*	00000000 _ZN18MovingMeshColliderC2Ev
020f975c g       *ABS*	00000000 _ZN7MinimapD2Ev
020a0e98 g       *ABS*	00000000 _ZN6Memory11heapDamagedE
020fe690 g       *ABS*	00000000 _Z15LoadViewObjectsRN12LevelOverlay11ObjSubTableEij
020deeac g       *ABS*	00000000 _ZN6Player21St_JumpQuicksand_InitEv
020755a0 g       *ABS*	00000000 _ZN3OAM8objWidthE
021106ac g       *ABS*	00000000 _ZN6Player21ST_METAL_WATER_GROUNDE
0202e78c g       *ABS*	00000000 _ZN2GX15DisableAllBanksEv
02022464 g       *ABS*	00000000 _ZN8Particle14BubbleCallback8OnUpdateERNS_6SystemEb
0210c618 g       *ABS*	00000000 _ZN3OAM14HEALTH_METER_1E
0203cbd8 g       *ABS*	00000000 _ZN6Memory13operator_new2Ej
02020980 g       *ABS*	00000000 _ZN3OAM11GetObjWidthEii
020170e8 g       *ABS*	00000000 _ZN9ModelBaseD0Ev
020610ac g       *ABS*	00000000 _ZN3IRQ21GameCardIREQMCHandlerEv
0205a460 g       *ABS*	00000000 CpuCopy16
0203c408 g       *ABS*	00000000 _ZN4Heap9SetNodeIDEj
020df740 g       *ABS*	00000000 _ZN6Player11St_Owl_InitEv
020568cc g       *ABS*	00000000 _ZN2GX14EndLoadTexPlttEv
0211046c g       *ABS*	00000000 _ZN6Player7ST_TALKE
0202c8b8 g       *ABS*	00000000 SetTouchScreenDelay
0203c274 g       *ABS*	00000000 _ZN4Heap7_SizeofEPKv
0204e3c0 g       *ABS*	00000000 _ZN4Heap28CreateExpandingHeapAllocatorEPvjj
020a4d38 g       *ABS*	00000000 _ZN6Memory16rootHeapIteratorE
02043ac4 g       *ABS*	00000000 _ZN9ActorBase11AfterRenderEj
0203bf44 g       *ABS*	00000000 Matrix4x3_FromTranslation
020356f4 g       *ABS*	00000000 _ZN12WithMeshClsn15ClearGroundFlagEv
02056c1c g       *ABS*	00000000 Copy48BytesFixed
0202635c g       *ABS*	00000000 _ZN5Stage9PS_UpdateEv
0400045c g       *ABS*	00000000 GXPORT_MTX_LOAD_4x3
02017f34 g       *ABS*	00000000 UnloadOverlay
020164b0 g       *ABS*	00000000 _ZN14BlendModelAnim9Virtual18EjPK7Vector3
0208e904 g       *ABS*	00000000 _ZTV5Model
0203cfdc g       *ABS*	00000000 Vec3_Dist
0210c230 g       *ABS*	00000000 _ZN3OAM13HEALTH_METERSE
020eea50 g       *ABS*	00000000 _ZN8PlatformC2Ev
0210ca48 g       *ABS*	00000000 _ZN3OAM18VS_YELLOW_NUMBER_7E
020e1b80 g       *ABS*	00000000 _ZN6Player12St_Fall_InitEv
0203c99c g       *ABS*	00000000 _ZN9SolidHeapD1Ev
02004b00 g       *ABS*	00000000 OBJ_TO_ACTOR_ID_TABLE_AFTER_DL_PATCH
0203b008 g       *ABS*	00000000 ApproachAngle
02015a00 g       *ABS*	00000000 _ZN15TextureSequenceD0Ev
0209f2e4 g       *ABS*	00000000 SOUND_MODE_TIMER
02039e60 g       *ABS*	00000000 _ZN18MovingMeshCollider17GetTriangleOriginEsR7Vector3
020d59b0 g       *ABS*	00000000 _ZN6Player19St_Electrocute_InitEv
0203ab8c g       *ABS*	00000000 _ZN21ExtendingMeshColliderC2Ev
0210c5b8 g       *ABS*	00000000 _ZN3OAM15MM_STAR_MARKERSE
021104e4 g       *ABS*	00000000 _ZN6Player9ST_CROUCHE
0209f290 g       *ABS*	00000000 VS_MODE_EXIT_STATE
0209f2c8 g       *ABS*	00000000 MENU_DISPLAYED_COURSE
020cb5bc g       *ABS*	00000000 _ZN6Player13St_Climb_MainEv
020fc04c g       *ABS*	00000000 _ZN3HUD19RenderCameraButtonsEv
020298d8 g       *ABS*	00000000 StartExitCharacterWipe
02056cb0 g       *ABS*	00000000 _ZN3IRQ11Dma0HandlerEv
04000006 g       *ABS*	00000000 reg_GX_VCOUNT
020cd0d0 g       *ABS*	00000000 _ZN6Player24St_MetalWaterGround_InitEv
02015c20 g       *ABS*	00000000 _ZN9Animation12SetAnimationEti5Fix12IiEt
04000008 g       *ABS*	00000000 reg_G2_BG0CNT
02021898 g       *ABS*	00000000 _ZN3OAM4LoadEv
02016a24 g       *ABS*	00000000 _ZN5Model12ShowMaterialEii
0209f25c g       *ABS*	00000000 NUM_MINIMAP_SCALE_OBJS
0211022c g       *ABS*	00000000 _ZN6Player13ST_NO_CONTROLE
0209f2d8 g       *ABS*	00000000 CURRENT_GAMEMODE
0210c508 g       *ABS*	00000000 _ZN3OAM22S_CAM_BUTTON_R_PRESSEDE
02022160 g       *ABS*	00000000 _ZN8Particle18CheckWaterCallback8OnUpdateERNS_6SystemEb
02029980 g       *ABS*	00000000 FUN_02029980
020301c4 g       *ABS*	00000000 Matrix4x3_FromQuaternion
0205a47c g       *ABS*	00000000 CpuFill32
020ad058 g       *ABS*	00000000 _ZN3OAM15TOUCH_MODE_TEXTE
020e3a04 g       *ABS*	00000000 _ZN6Player16OnPendingDestroyEv
0209b284 g       *ABS*	00000000 KS_PLAYER_IDS
02013ef4 g       *ABS*	00000000 _ZN12ActorDerived18AfterInitResourcesEj
02032f04 g       *ABS*	00000000 _ZN7Message16SetTextGlobalsVSEv
02017a3c g       *ABS*	00000000 _ZN13SharedFilePtr7LoadBMDEv
0203c654 g       *ABS*	00000000 _ZN9SolidHeap7VIntactEv
02012840 g       *ABS*	00000000 _ZN5Sound6Play2DEjj
02014150 g       *ABS*	00000000 InitCrashScreen
0211094c g       *ABS*	00000000 POWER_STAR_MODEL_PTR
020de8ac g       *ABS*	00000000 _ZN6Player15St_Balloon_InitEv
0209b2f8 g       *ABS*	00000000 LINE_SCROLL_POSITION
0202b534 g       *ABS*	00000000 _ZN5Stage23LoadTextureTransformersEv
02052ef4 g       *ABS*	00000000 _Z11HardwareModii
02026290 g       *ABS*	00000000 _ZN5Stage10PS_CleanupEv
0201013c g       *ABS*	00000000 _ZN5Actor8OnKickedERS_
020fb8f8 g       *ABS*	00000000 _ZN3HUDD2Ev
02011268 g       *ABS*	00000000 _ZN5Actor19BeforeInitResourcesEv
0210c8d4 g       *ABS*	00000000 _ZN3OAM18MM_VS_YOSHI_ICON_SE
0211067c g       *ABS*	00000000 _ZN6Player7ST_SWIME
0203c65c g       *ABS*	00000000 _ZN13ExpandingHeap7VIntactEv
02043af8 g       *ABS*	00000000 _ZN9ActorBase13AfterBehaviorEj
0203b770 g       *ABS*	00000000 Vec3_VertAngle
01ffd3f8 g       *ABS*	00000000 _ZN12MeshCollider10DetectClsnER13RaycastGround
020527e9 g       *ABS*	00000000 Matrix4x3_FromScale
02043afc g       *ABS*	00000000 _ZN9ActorBase14BeforeBehaviorEv
0210c550 g       *ABS*	00000000 _ZN3OAM19MM_SMALL_STAR_FADEDE
0210da30 g       *ABS*	00000000 SUPER_MUSHROOM_MODEL_PTR
0210c864 g       *ABS*	00000000 _ZN3OAM29MM_VS_YELLOW_YOSHI_L_CAP_ICONE
0202e66c g       *ABS*	00000000 _ZN5Scene19ResetFadersAndSoundEv
0202ae88 g       *ABS*	00000000 StartFile
02099fd4 g       *ABS*	00000000 _ZN3IRQ13DmaTimIndicesE
02019664 g       *ABS*	00000000 TurnBacklightOff
0211117c g       *ABS*	00000000 RENDERED_HEALTH
0205b988 g       *ABS*	00000000 PXI_SendWordByFifo
0203c9ec g       *ABS*	00000000 _ZN13ExpandingHeapD2Ev
020aed3c g       *ABS*	00000000 _ZN5EnemyD0Ev
020da794 g       *ABS*	00000000 _ZN6Player18St_BowserSpin_InitEv
020555d0 g       *ABS*	00000000 _ZN3G3X6SetFogEbiii
02039924 g       *ABS*	00000000 _ZN18MovingMeshCollider14GetAngularVelYEv
0209942c g       *ABS*	00000000 _ZTV18MovingMeshCollider
0204df54 g       *ABS*	00000000 _ZN13HeapAllocatorC1EjPvPvj
020c3d6c g       *ABS*	00000000 _ZN6Player17St_EndingFly_InitEv
020549c8 g       *ABS*	00000000 _ZN2GX12SetBankForBGEt
02043824 g       *ABS*	00000000 _ZN9ActorBase18MarkForDestructionEv
02111180 g       *ABS*	00000000 ZOOM_CAMERA_BUTTON_ACTIVE_TIMER
02018fe0 g       *ABS*	00000000 SetBg1Offset
0209f2b0 g       *ABS*	00000000 NEW_COIN_HIGH_SCORE
02015024 g       *ABS*	00000000 _ZN12CylinderClsn5ClearEv
021104cc g       *ABS*	00000000 _ZN6Player17ST_JUMP_QUICKSANDE
0204e828 g       *ABS*	00000000 _ZN22ExpandingHeapAllocatorC1EPvj
0203d170 g       *ABS*	00000000 Vec3_DivScalarInPlace
02019510 g       *ABS*	00000000 SetSoundMode
020167f8 g       *ABS*	00000000 _ZN9ModelAnim6RenderEPK7Vector3
020c4c60 g       *ABS*	00000000 _ZN6Player12ShowMessage2ER9ActorBasejPK7Vector3jj
02010134 g       *ABS*	00000000 _ZN5Actor24OnHitByCannonBlastedCharERS_
0209d3bc g       *ABS*	00000000 LAST_USED_FILE_ID
0210ca68 g       *ABS*	00000000 _ZN3OAM18VS_YELLOW_NUMBER_3E
02053258 g       *ABS*	00000000 _Z14HardwareDivQ125Fix12IiES0_
020d57d8 g       *ABS*	00000000 _ZN6Player4BurnEv
02011cc8 g       *ABS*	00000000 DisableSoundPlayersForCredits
02070788 g       *ABS*	00000000 strlen
0202a55c g       *ABS*	00000000 NumVsStarsObtained
020cb568 g       *ABS*	00000000 _ZN6Player16St_Climb_CleanupEv
02059d48 g       *ABS*	00000000 _ZN3IRQ10DisableAllEv
0208f45c g       *ABS*	00000000 _ZTVN8Particle21CleanParticleCallbackE
0211064c g       *ABS*	00000000 _ZN6Player15ST_FIRST_PERSONE
020366b4 g       *ABS*	00000000 _ZN12WithMeshClsn16UpdateContinuousEv
0209fc50 g       *ABS*	00000000 NUM_PLAYERS_2
0211095c g       *ABS*	00000000 TRANSPARENT_STAR_MODEL_PTR
02039430 g       *ABS*	00000000 _ZN16MeshColliderBase12TransformPosERK7Vector3RS0_
020d369c g       *ABS*	00000000 _ZN6Player18St_TurnAround_InitEv
0209f328 g       *ABS*	00000000 ENTRANCE_ARR_PTR
020d2378 g       *ABS*	00000000 _ZN6Player15St_Wait_CleanupEv
0203c4b0 g       *ABS*	00000000 _ZN13ExpandingHeap14VDeallocateAllEv
02010374 g       *ABS*	00000000 _ZN5Actor18FindExplosionActorER12CylinderClsn
02037388 g       *ABS*	00000000 _ZN12WithMeshClsn4InitEP5Actor5Fix12IiES3_P10Vector3_16S5_
020755ac g       *ABS*	00000000 _ZN3OAM9objHeightE
02015ce8 g       *ABS*	00000000 _ZN9AnimationD1Ev
020ff06c g       *ABS*	00000000 COIN_POLY32_MODEL_PTRS
02054d38 g       *ABS*	00000000 _ZN3G2S13GetBG3CharPtrEv
021104b4 g       *ABS*	00000000 _ZN6Player14ST_LEVEL_ENTERE
0203add4 g       *ABS*	00000000 _Z15CountDownToZeroRh
0203ac80 g       *ABS*	00000000 _ZN7PathPtr6FromIDEj
0209f280 g       *ABS*	00000000 STOP_MUSIC_DURING_FADE
0210e3a0 g       *ABS*	00000000 YOSHI_CUBE_EGG_MODEL_PTR
0202b710 g       *ABS*	00000000 _ZN5Stage7LoadFogEv
0208e944 g       *ABS*	00000000 _ZTV14BlendModelAnim
020da3b0 g       *ABS*	00000000 _ZN6Player19St_SwingPlayer_InitEv
020168d8 g       *ABS*	00000000 _ZN9ModelAnimD0Ev
020ab8e8 g       *ABS*	00000000 _ZN3OAM13MM_YOSHI_ICONE
020ca498 g       *ABS*	00000000 _ZN6Player16TryEnterStarDoorER7Vector3s
020d4de8 g       *ABS*	00000000 _ZN6Player12St_Bonk_MainEv
0206df84 g       *ABS*	00000000 abs
02099d88 g       *ABS*	00000000 _ZTV4Heap
020704cc g       *ABS*	00000000 strchr
021103f4 g       *ABS*	00000000 _ZN6Player13ST_SLOPE_JUMPE
02029838 g       *ABS*	00000000 _ZN5Stage14GraphCallback1Ev
02111144 g       *ABS*	00000000 START_INTRO_MINIMAP_ZOOM
020e027c g       *ABS*	00000000 _ZN6Player11St_Fly_InitEv
0209f2f0 g       *ABS*	00000000 COURSE_ARROW_BUTTONS_INVISIBLE
020ab888 g       *ABS*	00000000 _ZN3OAM20MM_LUIGI_NO_CAP_ICONE
020cf6bc g       *ABS*	00000000 _ZN6Player20St_CeilingGrate_InitEv
0209f30c g       *ABS*	00000000 NUM_RED_COINS
0210c648 g       *ABS*	00000000 _ZN3OAM14HEALTH_METER_0E
0201682c g       *ABS*	00000000 _ZN9ModelAnim9Virtual10ER9Matrix4x3
02015e14 g       *ABS*	00000000 _ZN11ShadowModel8CleanAllEv
0210da40 g       *ABS*	00000000 MARIO_CAP_MODEL_PTR
0202b268 g       *ABS*	00000000 _ZN5Stage11RenderModelEv
02043c88 g       *ABS*	00000000 _ZN9ActorBase7ProcessEMS_FivEMS_FbvEMS_FvjE
02014770 g       *ABS*	00000000 nds_print
020f9e8c g       *ABS*	00000000 _ZN7Minimap16CleanupResourcesEv
020150e8 g       *ABS*	00000000 _ZN7Clipper13Func_020150E8ER7Vector35Fix12IiEPh
02015720 g       *ABS*	00000000 _ZN7ClipperD1Ev
02092120 g       *ABS*	00000000 AREA_ID
02087c00 g       *ABS*	00000000 BOB_CREDITS_CUTSCENE
02010e08 g       *ABS*	00000000 _ZN5Actor9SetRangesE5Fix12IiES1_S1_S1_
020172c0 g       *ABS*	00000000 _ZN9FaderWipe14LoadAndSetFileEt
020250d0 g       *ABS*	00000000 _ZN5Stage12RenderNumberEhiibi
0209f1fc g       *ABS*	00000000 OPTIONS_MENU_OPENED
0202e088 g       *ABS*	00000000 _ZN5StageC2Ev
02029a68 g       *ABS*	00000000 FUN_02029a68
0209f2a8 g       *ABS*	00000000 LEVEL_CLEAR_TIMER
0202e140 g       *ABS*	00000000 _ZN5SceneD2Ev
02110214 g       *ABS*	00000000 _ZN6Player6ST_FLYE
020226d4 g       *ABS*	00000000 _ZN8Particle19SetSelfDestructFlagEj
020e13c0 g       *ABS*	00000000 _ZN6Player24St_SlideKickRecover_MainEv
02056738 g       *ABS*	00000000 _ZN3GXS11LoadOBJPlttEPKvjj
020e18a8 g       *ABS*	00000000 _ZN6Player16St_BackFlip_InitEv
0209e670 g       *ABS*	00000000 _ZN3OAM11objCountSubE
0201490c g       *ABS*	00000000 _ZN18MovingCylinderClsn4InitEP5Actor5Fix12IiES3_jj
020ab9c8 g       *ABS*	00000000 _ZN3OAM5TIMESE
020e1714 g       *ABS*	00000000 _ZN6Player16St_WallJump_MainEv
020392f8 g       *ABS*	00000000 _ZN16MeshColliderBase25UpdateAngsWithAngularVelYERS_P5ActorR10ClsnResultR7Vector3P10Vector3_16S8_
0201320c g       *ABS*	00000000 _ZN5Sound22LoadAndSetMusic_Layer1Ei
020a0e9c g       *ABS*	00000000 _ZN6Memory11rootHeapPtrE
02110334 g       *ABS*	00000000 _ZN6Player13ST_BUTT_SLIDEE
0209f1d1 g       *ABS*	00000000 DAT_0209f1d1
02020884 g       *ABS*	00000000 _ZN3OAM16LoadAffineParamsEP7OamAttrPiP9Matrix2x2
02110604 g       *ABS*	00000000 _ZN6Player15ST_SWING_PLAYERE
0203c28c g       *ABS*	00000000 _ZN4Heap8AllocateEj
0203cc0c g       *ABS*	00000000 _ZN6Memory6mallocEj
0204ec40 g       *ABS*	00000000 _ZN18SolidHeapAllocator10ResetStartEv
020ca2ac g       *ABS*	00000000 _ZN6Player15JumpIntoBooCageER7Vector3
0210c4e8 g       *ABS*	00000000 _ZN3OAM12CAM_BUTTON_RE
0203c6bc g       *ABS*	00000000 _ZN13ExpandingHeap9VAllocateEji
01ffde00 g       *ABS*	00000000 DMAStartTransferFB
020db4d8 g       *ABS*	00000000 _ZN6Player15St_Grabbed_InitEv
020943bc g       *ABS*	00000000 _ZTV14MultiBootScene
02092144 g       *ABS*	00000000 HEALTH_ARR
020bedd4 g       *ABS*	00000000 _ZN6Player10UpdateAnimEv
02019584 g       *ABS*	00000000 _ZN5Timer7GetTimeEv
020cc228 g       *ABS*	00000000 _ZN6Player16St_Shell_CleanupEv
020e0b50 g       *ABS*	00000000 _ZN6Player17St_SlopeJump_MainEv
0211043c g       *ABS*	00000000 _ZN6Player10ST_ON_WALLE
02111150 g       *ABS*	00000000 EXIT_COURSE_VS_MODE
02021864 g       *ABS*	00000000 _ZN3OAM5FlushEv
020161e0 g       *ABS*	00000000 _ZN11CommonModelD1Ev
020e0adc g       *ABS*	00000000 _ZN6Player21St_SmallLaunchUp_InitEv
020d966c g       *ABS*	00000000 _ZN6Player12St_Hurt_MainEv
0203c24c g       *ABS*	00000000 _ZN4Heap18InitializeGameHeapEjPS_
01ffabe4 g       *ABS*	00000000 __aeabi_idivmod
02016604 g       *ABS*	00000000 _ZN14BlendModelAnim9DoSetFileER8BMD_Filebi
020c4bd8 g       *ABS*	00000000 _ZN6Player12St_Talk_InitEv
0208eac4 g       *ABS*	00000000 _ZTV15FaderBrightness
02059d80 g       *ABS*	00000000 _ZN4CP1516WaitForInterruptEv
020187b0 g       *ABS*	00000000 UnloadArchives
0210c954 g       *ABS*	00000000 _ZN3OAM24MM_VS_YOSHI_L_CAP_ICON_SE
0209b4a0 g       *ABS*	00000000 _ZN5Sound7FileRef5PTR_0E
0202bbbc g       *ABS*	00000000 _ZN5Stage8BehaviorEv
020cd1e4 g       *ABS*	00000000 _ZN6Player15St_Swim_CleanupEv
020064e0 g       *ABS*	00000000 _ZN8CapEnemy14UnloadCapModelEv
02059d74 g       *ABS*	00000000 ARMProcessorMode
020be0f8 g       *ABS*	00000000 _ZN6Player18SetNewHatCharacterEjjb
02014a84 g       *ABS*	00000000 _ZN25MovingCylinderClsnWithPosC1Ev
0209f5c0 g       *ABS*	00000000 ROOT_ACTOR_BASE
020dc740 g       *ABS*	00000000 _ZN6Player17St_ButtSlide_MainEv
02016644 g       *ABS*	00000000 _ZN14BlendModelAnimD0Ev
0208eb24 g       *ABS*	00000000 _ZTV10FaderColor
0201eb94 g       *ABS*	00000000 _ZN7Message13DisplaySavingEt
0210c488 g       *ABS*	00000000 _ZN3OAM22S_CAM_BUTTON_L_PRESSEDE
0203a470 g       *ABS*	00000000 _ZN18MovingMeshColliderD1Ev
020dec0c g       *ABS*	00000000 _ZN6Player17St_WindCarry_InitEv
0210e7d8 g       *ABS*	00000000 YOSHI_EGG_MODEL_PTR
020fbdac g       *ABS*	00000000 _ZN3HUD15CalculateDigitsEt
02012664 g       *ABS*	00000000 _ZN5Sound12PlayArchive3EjRK7Vector3
0209f34c g       *ABS*	00000000 EVENT_FIELD
0201e36c g       *ABS*	00000000 _ZN7Message11DisplayTextEt
0203c020 g       *ABS*	00000000 Matrix4x3_ApplyInPlaceToRotationZXYExt
0400000c g       *ABS*	00000000 reg_G2_BG2CNT
020c662c g       *ABS*	00000000 _ZN6Player14St_Squish_MainEv
020dea00 g       *ABS*	00000000 _ZN6Player16InitBalloonMarioEv
02017150 g       *ABS*	00000000 _ZN9ModelBaseC1Ev
020e32d4 g       *ABS*	00000000 _ZN6Player16CleanupResourcesEv
0203c6ac g       *ABS*	00000000 _ZN9SolidHeap9VAllocateEjj
020525a0 g       *ABS*	00000000 MulVec3Mat3x3
0209b274 g       *ABS*	00000000 KS_FRAME_COUNTER
0210ca70 g       *ABS*	00000000 _ZN3OAM18VS_YELLOW_NUMBER_2E
02021024 g       *ABS*	00000000 _ZN3OAM6RenderEbP7OamAttriiii5Fix12IiEi
0200fd74 g       *ABS*	00000000 _ZN5Actor16TriplePoofDustAtERK7Vector3
02035820 g       *ABS*	00000000 _ZN12WithMeshClsn18StopDetectingWaterEv
020e68f4 g       *ABS*	00000000 _ZN6PlayerC1Ev
020137e0 g       *ABS*	00000000 IsStarCollected
020ab858 g       *ABS*	00000000 _ZN3OAM19MM_LUIGI_W_CAP_ICONE
02010c30 g       *ABS*	00000000 _ZN5Actor9UpdatePosEP12CylinderClsn
0210c804 g       *ABS*	00000000 _ZN3OAM22MM_VS_YOSHI_L_CAP_ICONE
04001000 g       *ABS*	00000000 reg_GXS_DB_DISPCNT
02039438 g       *ABS*	00000000 _ZN16MeshColliderBase10BeforeClsnER10ClsnResultP5ActorR7Vector3P10Vector3_16S7_
020d9654 g       *ABS*	00000000 _ZN6Player15St_Hurt_CleanupEv
020c4fa0 g       *ABS*	00000000 _ZN6Player9StartTalkER9ActorBaseb
02056de0 g       *ABS*	00000000 _ZN3IRQ10EnableIRQsEj
02052f4c g       *ABS*	00000000 _Z11HardwareDivii
020062b8 g       *ABS*	00000000 _ZN8CapEnemy12UpdateCapPosERK7Vector3RK10Vector3_16
0202e5f0 g       *ABS*	00000000 _ZN5Scene22BeforeCleanupResourcesEv
04000004 g       *ABS*	00000000 reg_GX_DISPSTAT
02110304 g       *ABS*	00000000 _ZN6Player8ST_SHELLE
02043ac0 g       *ABS*	00000000 _ZN9ActorBase16OnPendingDestroyEv
02013e80 g       *ABS*	00000000 _ZN12ActorDerivedD1Ev
020c2ef0 g       *ABS*	00000000 _ZN6Player7CanWarpEv
0203cbf0 g       *ABS*	00000000 free
020d19a8 g       *ABS*	00000000 _ZN6Player17St_HoldHeavy_InitEv
0210cad4 g       *ABS*	00000000 _ZN3OAM18MM_STAR_KEY_BRIGHTE
02039f20 g       *ABS*	00000000 _ZN18MovingMeshCollider9TransformERK9Matrix4x3s
0201150c g       *ABS*	00000000 _ZN5ActorC2Ev
02015ef4 g       *ABS*	00000000 _ZN11ShadowModel9DoSetFileER8BMD_Filebi
02053884 g       *ABS*	00000000 AddVec3
0214eb00 g       *ABS*	00000000 LEVEL_OVERLAY
0206dabc g       *ABS*	00000000 __builtin_trap
020ae954 g       *ABS*	00000000 _ZN5Enemy11KillByPunchER5Actor
020bd664 g       *ABS*	00000000 _ZN6Player26CallKuppaScriptInstructionEPcss
0202a87c g       *ABS*	00000000 InitControllerMode
0202194c g       *ABS*	00000000 _ZN3OAM9RenderSubEP7OamAttrii
0202fc98 g       *ABS*	00000000 _ZN4ViewD1Ev


